Certificate:
    Data:
        Version: 1 (0x0)
        Serial Number:
            0d:5a:aa:e7:c6:8a:00:ed:89:12:69:d9:22:09:8d:6b
        Signature Algorithm: sha256WithRSAEncryption
        Issuer: C=ES, ST=Bizkaia, O=Orlando, OU=IOT, CN=IOT_SubCA
        Validity
            Not Before: Feb 28 12:56:34 2021 GMT
            Not After : Feb 28 12:56:34 2022 GMT
        Subject: C=ES, ST=Gipuzkoa, O=Orlando, OU=IOT, CN=Gorka Alvarez/emailAddress=gorka@iot.es
        Subject Public Key Info:
            Public Key Algorithm: rsaEncryption
                RSA Public-Key: (2048 bit)
                Modulus:
                    00:a3:1a:31:3c:01:42:20:65:da:a9:5e:2e:9a:80:
                    f4:53:9b:81:7a:cc:42:fd:1a:5e:0c:2a:44:ff:52:
                    df:f7:13:50:3d:79:86:11:b9:ec:19:04:a2:1a:a0:
                    1b:a0:41:80:8a:3e:80:8a:a2:e3:1a:5c:cf:3f:eb:
                    9f:41:44:ef:db:01:36:b4:a9:cf:7f:de:2c:ad:5b:
                    39:76:72:6e:d5:5c:f6:96:33:13:2b:57:f5:d6:de:
                    9b:35:6f:52:45:f2:12:1a:e7:48:8a:bf:a0:42:5a:
                    99:93:c0:af:85:bf:be:58:cd:e6:b2:ac:d5:0a:33:
                    40:c3:84:04:98:b9:ec:0e:e4:8b:5f:6a:24:57:2f:
                    36:40:0f:88:bf:48:cb:ac:fb:73:20:78:b4:75:47:
                    29:d3:d1:13:33:3e:e4:c7:e8:1e:ef:1a:f3:d8:b8:
                    53:85:32:33:16:ec:e3:c3:f6:f0:8f:b4:6b:5c:9d:
                    9e:31:2e:73:22:36:d1:4b:55:97:45:5b:ac:59:81:
                    74:fc:9b:6b:f8:2d:b2:cd:d6:5d:3e:23:09:16:66:
                    c0:5f:42:ec:34:ff:4a:3e:ae:dd:5b:60:7c:34:4c:
                    a6:75:5c:42:02:56:64:68:f3:32:9b:0d:6d:5d:2d:
                    2d:5f:58:e1:d4:8e:41:93:8a:95:08:8d:d0:cd:0d:
                    54:75
                Exponent: 65537 (0x10001)
    Signature Algorithm: sha256WithRSAEncryption
         1f:3b:13:bd:db:ce:c6:ae:95:01:97:77:95:b3:94:87:ed:69:
         b7:bc:87:96:8a:e9:88:a3:81:72:58:e3:93:49:c0:8d:b0:06:
         04:6a:85:5a:82:3b:1b:53:77:3d:4a:6a:0c:70:fa:3b:34:9a:
         ce:9c:d6:f9:3f:e5:e1:5c:c0:3d:c8:d7:11:79:b3:91:5c:d6:
         a1:07:dc:f6:ba:c8:6d:08:a8:20:b1:44:58:9c:b7:ac:3b:04:
         6d:35:58:ec:16:49:cb:51:ad:d1:ed:b4:98:09:97:9f:bf:45:
         75:55:6b:92:dc:7a:13:7b:9d:a4:8a:94:2a:06:ae:b0:00:c1:
         1a:88:eb:87:f9:2d:c3:17:a5:d8:0f:ec:1a:1c:29:31:c5:f3:
         26:55:81:7d:7b:1b:1b:75:07:63:a0:22:0c:ac:a3:ae:39:fc:
         36:41:8d:1c:f3:ee:d1:d2:1e:16:36:09:0c:8d:97:b4:00:c8:
         17:8a:a6:4b:87:93:f7:b9:ee:e4:7e:5d:24:df:65:05:0d:d1:
         d7:9d:76:08:6f:ff:d4:26:09:35:51:0e:3f:fd:92:95:f4:30:
         a3:1d:51:8a:63:42:c0:04:52:70:f5:63:da:ef:45:ce:e4:8a:
         d5:23:b7:ad:fc:14:f3:7b:98:2f:f3:e5:62:be:01:db:27:7e:
         8b:81:c8:4d
-----BEGIN CERTIFICATE-----
MIIDSzCCAjMCEA1aqufGigDtiRJp2SIJjWswDQYJKoZIhvcNAQELBQAwUzELMAkG
A1UEBhMCRVMxEDAOBgNVBAgMB0JpemthaWExEDAOBgNVBAoMB09ybGFuZG8xDDAK
BgNVBAsMA0lPVDESMBAGA1UEAwwJSU9UX1N1YkNBMB4XDTIxMDIyODEyNTYzNFoX
DTIyMDIyODEyNTYzNFowdTELMAkGA1UEBhMCRVMxETAPBgNVBAgMCEdpcHV6a29h
MRAwDgYDVQQKDAdPcmxhbmRvMQwwCgYDVQQLDANJT1QxFjAUBgNVBAMMDUdvcmth
IEFsdmFyZXoxGzAZBgkqhkiG9w0BCQEWDGdvcmthQGlvdC5lczCCASIwDQYJKoZI
hvcNAQEBBQADggEPADCCAQoCggEBAKMaMTwBQiBl2qleLpqA9FObgXrMQv0aXgwq
RP9S3/cTUD15hhG57BkEohqgG6BBgIo+gIqi4xpczz/rn0FE79sBNrSpz3/eLK1b
OXZybtVc9pYzEytX9dbemzVvUkXyEhrnSIq/oEJamZPAr4W/vljN5rKs1QozQMOE
BJi57A7ki19qJFcvNkAPiL9Iy6z7cyB4tHVHKdPREzM+5MfoHu8a89i4U4UyMxbs
48P28I+0a1ydnjEucyI20UtVl0VbrFmBdPyba/gtss3WXT4jCRZmwF9C7DT/Sj6u
3VtgfDRMpnVcQgJWZGjzMpsNbV0tLV9Y4dSOQZOKlQiN0M0NVHUCAwEAATANBgkq
hkiG9w0BAQsFAAOCAQEAHzsTvdvOxq6VAZd3lbOUh+1pt7yHlorpiKOBcljjk0nA
jbAGBGqFWoI7G1N3PUpqDHD6OzSazpzW+T/l4VzAPcjXEXmzkVzWoQfc9rrIbQio
ILFEWJy3rDsEbTVY7BZJy1Gt0e20mAmXn79FdVVrktx6E3udpIqUKgausADBGojr
h/ktwxel2A/sGhwpMcXzJlWBfXsbG3UHY6AiDKyjrjn8NkGNHPPu0dIeFjYJDI2X
tADIF4qmS4eT97nu5H5dJN9lBQ3R1512CG//1CYJNVEOP/2SlfQwox1RimNCwARS
cPVj2u9FzuSK1SO3rfwU83uYL/PlYr4B2yd+i4HITQ==
-----END CERTIFICATE-----
