Certificate:
    Data:
        Version: 3 (0x2)
        Serial Number:
            0c:1c:b3:7b:e0:ed:c2:4e:cd:67:02:7c:2e:ca:83:f0
        Signature Algorithm: sha256WithRSAEncryption
        Issuer: C=ES, ST=Bizkaia, O=Orlando, OU=IOT, CN=IOT_CA
        Validity
            Not Before: Mar  1 19:04:12 2021 GMT
            Not After : Mar  1 19:04:12 2022 GMT
        Subject: C=ES, ST=Bizkaia, O=Orlando, OU=IOT, CN=IOT_CA
        Subject Public Key Info:
            Public Key Algorithm: rsaEncryption
                RSA Public-Key: (2048 bit)
                Modulus:
                    00:d1:08:a7:8e:b5:b8:24:cd:04:f3:c0:52:2e:cc:
                    dd:db:68:65:ab:b0:8f:16:75:17:12:01:a6:c9:61:
                    25:d9:c2:9d:33:e2:90:bb:2d:b3:89:a6:99:e6:9a:
                    48:6e:ba:e8:47:fe:e0:5a:7e:1e:53:08:12:ee:db:
                    84:da:57:25:0f:b5:b0:67:65:ef:87:70:ce:c5:a4:
                    e6:66:3e:ad:b1:22:c9:b5:41:2d:f6:e0:d1:d8:41:
                    3e:ce:1d:f2:db:d4:df:93:a6:31:5f:24:ae:fc:50:
                    65:5d:8d:99:64:16:d2:a3:03:90:6e:8f:7d:f1:33:
                    92:66:d3:55:e6:c3:87:13:4f:d4:9e:79:b2:f0:15:
                    9a:89:75:40:ba:92:d0:8d:ed:62:d1:39:ff:84:fc:
                    d6:46:a8:13:0e:e4:e8:49:b8:ea:ca:41:8d:b0:43:
                    54:71:b3:f5:58:d5:57:56:ab:1f:cf:0b:6d:76:c7:
                    2e:4c:92:66:f7:9f:57:63:ac:00:1e:c7:ce:38:26:
                    d9:86:2e:10:64:56:a6:eb:f6:ec:1e:bc:1c:b9:e4:
                    b4:3e:95:76:02:1d:1d:7e:4e:f2:77:1e:1d:ce:15:
                    83:73:5c:cc:30:41:1e:b7:5e:df:50:7c:e0:50:eb:
                    f6:75:fc:8c:c2:90:55:47:20:31:b9:e0:47:28:a5:
                    4c:ed
                Exponent: 65537 (0x10001)
        X509v3 extensions:
            X509v3 Basic Constraints: critical
                CA:TRUE
            X509v3 Key Usage: critical
                Digital Signature, Certificate Sign, CRL Sign
            X509v3 Subject Key Identifier: 
                11:DF:42:04:89:EF:94:FA:B2:26:0D:D5:98:86:59:CF:A7:E4:B3:A0
            X509v3 Authority Key Identifier: 
                keyid:11:DF:42:04:89:EF:94:FA:B2:26:0D:D5:98:86:59:CF:A7:E4:B3:A0

    Signature Algorithm: sha256WithRSAEncryption
         4d:bf:2f:8e:db:de:ec:9e:13:d9:a4:49:4e:ed:46:64:59:7c:
         03:2f:65:5c:f1:e3:0f:80:10:c2:03:00:fe:d2:23:3a:3e:79:
         40:2f:4a:69:e3:f2:2a:de:47:11:54:ea:98:50:8f:4a:8b:56:
         06:53:f6:21:57:31:c2:ac:c0:45:6d:8a:bb:f4:59:2b:f4:03:
         13:22:a6:91:01:d3:4e:c4:43:3f:9d:d5:74:09:43:f6:b2:d2:
         19:2b:b4:a0:99:65:75:cf:da:3e:27:d1:6d:10:5f:24:c6:f2:
         fb:3b:4f:3d:04:b5:8b:0a:f1:71:34:94:30:9d:6b:f3:c8:d5:
         43:56:0f:cf:48:6c:98:e1:d9:13:57:d2:5a:61:d8:b5:86:7d:
         80:2c:d0:67:7d:db:40:f3:9b:fa:6e:60:fa:07:fe:6e:f5:15:
         a4:08:22:5d:d5:6d:d3:fb:75:a1:03:ab:56:fa:bd:38:d8:c2:
         09:24:1b:30:6a:0a:08:a5:4c:d0:98:9d:4f:c7:05:7e:00:77:
         71:2c:33:47:41:53:5a:cd:6e:98:de:8c:ec:98:ae:bf:57:80:
         a5:90:d4:4c:88:92:9f:c2:a3:15:14:73:55:2f:c1:b6:ae:51:
         1d:7b:32:86:2f:0a:9b:25:b0:f7:a6:c3:d5:e0:1b:2e:39:eb:
         ff:6a:19:88
-----BEGIN CERTIFICATE-----
MIIDjTCCAnWgAwIBAgIQDByze+Dtwk7NZwJ8LsqD8DANBgkqhkiG9w0BAQsFADBQ
MQswCQYDVQQGEwJFUzEQMA4GA1UECAwHQml6a2FpYTEQMA4GA1UECgwHT3JsYW5k
bzEMMAoGA1UECwwDSU9UMQ8wDQYDVQQDDAZJT1RfQ0EwHhcNMjEwMzAxMTkwNDEy
WhcNMjIwMzAxMTkwNDEyWjBQMQswCQYDVQQGEwJFUzEQMA4GA1UECAwHQml6a2Fp
YTEQMA4GA1UECgwHT3JsYW5kbzEMMAoGA1UECwwDSU9UMQ8wDQYDVQQDDAZJT1Rf
Q0EwggEiMA0GCSqGSIb3DQEBAQUAA4IBDwAwggEKAoIBAQDRCKeOtbgkzQTzwFIu
zN3baGWrsI8WdRcSAabJYSXZwp0z4pC7LbOJppnmmkhuuuhH/uBafh5TCBLu24Ta
VyUPtbBnZe+HcM7FpOZmPq2xIsm1QS324NHYQT7OHfLb1N+TpjFfJK78UGVdjZlk
FtKjA5Buj33xM5Jm01Xmw4cTT9SeebLwFZqJdUC6ktCN7WLROf+E/NZGqBMO5OhJ
uOrKQY2wQ1Rxs/VY1VdWqx/PC212xy5Mkmb3n1djrAAex844JtmGLhBkVqbr9uwe
vBy55LQ+lXYCHR1+TvJ3Hh3OFYNzXMwwQR63Xt9QfOBQ6/Z1/IzCkFVHIDG54Eco
pUztAgMBAAGjYzBhMA8GA1UdEwEB/wQFMAMBAf8wDgYDVR0PAQH/BAQDAgGGMB0G
A1UdDgQWBBQR30IEie+U+rImDdWYhlnPp+SzoDAfBgNVHSMEGDAWgBQR30IEie+U
+rImDdWYhlnPp+SzoDANBgkqhkiG9w0BAQsFAAOCAQEATb8vjtve7J4T2aRJTu1G
ZFl8Ay9lXPHjD4AQwgMA/tIjOj55QC9KaePyKt5HEVTqmFCPSotWBlP2IVcxwqzA
RW2Ku/RZK/QDEyKmkQHTTsRDP53VdAlD9rLSGSu0oJlldc/aPifRbRBfJMby+ztP
PQS1iwrxcTSUMJ1r88jVQ1YPz0hsmOHZE1fSWmHYtYZ9gCzQZ33bQPOb+m5g+gf+
bvUVpAgiXdVt0/t1oQOrVvq9ONjCCSQbMGoKCKVM0JidT8cFfgB3cSwzR0FTWs1u
mN6M7Jiuv1eApZDUTIiSn8KjFRRzVS/Btq5RHXsyhi8KmyWw96bD1eAbLjnr/2oZ
iA==
-----END CERTIFICATE-----
