Certificate:
    Data:
        Version: 3 (0x2)
        Serial Number:
            0c:1c:b3:7b:e0:ed:c2:4e:cd:67:02:7c:2e:ca:83:f1
        Signature Algorithm: sha256WithRSAEncryption
        Issuer: C=ES, ST=Bizkaia, O=Orlando, OU=IOT, CN=IOT_CA
        Validity
            Not Before: Mar  1 19:06:03 2021 GMT
            Not After : Mar  1 19:06:03 2022 GMT
        Subject: C=ES, ST=Bizkaia, O=Orlando, OU=IOT, CN=IOT_SubCA
        Subject Public Key Info:
            Public Key Algorithm: rsaEncryption
                RSA Public-Key: (2048 bit)
                Modulus:
                    00:a6:ac:9f:e7:f5:93:b9:93:2a:bc:83:4c:20:9a:
                    48:f7:05:62:4c:89:0a:d0:b0:74:e5:28:86:b9:26:
                    13:94:2f:10:c2:6f:14:18:32:2f:0d:99:58:ad:f9:
                    28:11:c6:c1:b9:9f:0f:09:b0:b5:75:de:f6:cb:a7:
                    e6:68:38:5e:f9:4a:bb:59:10:0d:01:62:49:f3:c0:
                    b0:31:6f:18:9c:89:ca:f7:6b:14:1a:2a:53:3b:e2:
                    01:f7:aa:98:ca:d5:5a:e4:5c:98:20:d2:c1:5f:fa:
                    b5:9c:48:73:bb:88:bf:f7:e2:9d:67:73:30:cf:96:
                    5c:4e:d5:31:20:99:89:33:d7:7c:69:12:51:a3:d5:
                    a6:6f:d9:eb:c8:79:41:d5:e7:32:3e:cb:c4:2a:9f:
                    d3:9c:91:e6:9b:99:5d:f6:1a:ca:64:1f:e6:61:22:
                    18:20:e2:d6:dc:8e:18:e3:a7:90:a7:1a:73:af:00:
                    d6:d9:ba:d4:bc:fc:16:89:db:8a:4f:cc:17:5f:56:
                    6b:d5:3a:cd:fb:64:93:4e:b8:ed:82:f7:3c:98:2a:
                    23:25:71:83:dc:b3:0a:79:cf:04:1c:29:b7:6d:55:
                    4c:2a:e6:a7:08:ad:96:f3:00:96:2c:33:fe:d3:6b:
                    2a:1c:b5:af:0e:b1:33:b7:43:c1:84:14:69:10:a9:
                    5c:75
                Exponent: 65537 (0x10001)
        X509v3 extensions:
            X509v3 Subject Key Identifier: 
                58:2F:21:33:11:4F:0F:27:EC:F0:E6:5C:D3:A4:EB:DC:0D:AC:36:97
            X509v3 Authority Key Identifier: 
                keyid:11:DF:42:04:89:EF:94:FA:B2:26:0D:D5:98:86:59:CF:A7:E4:B3:A0

            X509v3 Basic Constraints: critical
                CA:TRUE, pathlen:0
            X509v3 Key Usage: critical
                Digital Signature, Certificate Sign, CRL Sign
    Signature Algorithm: sha256WithRSAEncryption
         ab:13:c7:29:79:e3:6f:b2:0b:34:c2:28:89:74:8d:ca:0f:f9:
         f7:0a:8c:2c:83:4a:03:bb:ec:e7:17:90:2f:7e:67:f7:78:43:
         02:d3:51:b9:b6:3a:7b:0a:34:32:fa:0e:50:2f:0b:37:d7:ac:
         81:07:22:0a:df:52:5b:7c:7d:a9:f7:d2:40:f1:7b:72:7b:cb:
         0c:85:00:e6:a4:8b:77:49:33:a2:64:c1:db:c5:04:b5:8f:f8:
         46:ba:54:43:65:d2:16:8a:4d:62:1d:d6:d0:b1:8f:f8:db:dd:
         2b:db:12:54:bd:8c:20:64:28:33:fa:41:d8:24:a2:d0:d2:f6:
         0d:60:2b:80:d3:bc:3e:13:b1:2e:b4:86:7f:aa:1c:79:77:15:
         da:9e:ec:16:91:c2:60:09:34:bc:7d:bd:81:fe:9c:d6:60:91:
         1f:32:73:0d:8e:df:ac:20:5c:74:6a:8d:5b:a3:56:c3:00:7b:
         ff:c3:0d:72:12:b9:e4:1b:ab:62:81:60:75:56:6e:b8:00:c7:
         4e:7d:89:1c:8d:cc:d2:49:61:17:15:ff:70:24:70:ac:39:86:
         c0:0b:3f:a6:71:da:04:34:8f:98:91:f2:74:27:f4:c0:65:ce:
         de:15:28:8f:76:8b:77:c5:cd:00:d0:d8:7a:0f:fd:ec:ec:0a:
         22:07:9b:00
-----BEGIN CERTIFICATE-----
MIIDkzCCAnugAwIBAgIQDByze+Dtwk7NZwJ8LsqD8TANBgkqhkiG9w0BAQsFADBQ
MQswCQYDVQQGEwJFUzEQMA4GA1UECAwHQml6a2FpYTEQMA4GA1UECgwHT3JsYW5k
bzEMMAoGA1UECwwDSU9UMQ8wDQYDVQQDDAZJT1RfQ0EwHhcNMjEwMzAxMTkwNjAz
WhcNMjIwMzAxMTkwNjAzWjBTMQswCQYDVQQGEwJFUzEQMA4GA1UECAwHQml6a2Fp
YTEQMA4GA1UECgwHT3JsYW5kbzEMMAoGA1UECwwDSU9UMRIwEAYDVQQDDAlJT1Rf
U3ViQ0EwggEiMA0GCSqGSIb3DQEBAQUAA4IBDwAwggEKAoIBAQCmrJ/n9ZO5kyq8
g0wgmkj3BWJMiQrQsHTlKIa5JhOULxDCbxQYMi8NmVit+SgRxsG5nw8JsLV13vbL
p+ZoOF75SrtZEA0BYknzwLAxbxicicr3axQaKlM74gH3qpjK1VrkXJgg0sFf+rWc
SHO7iL/34p1nczDPllxO1TEgmYkz13xpElGj1aZv2evIeUHV5zI+y8Qqn9Ockeab
mV32GspkH+ZhIhgg4tbcjhjjp5CnGnOvANbZutS8/BaJ24pPzBdfVmvVOs37ZJNO
uO2C9zyYKiMlcYPcswp5zwQcKbdtVUwq5qcIrZbzAJYsM/7Tayocta8OsTO3Q8GE
FGkQqVx1AgMBAAGjZjBkMB0GA1UdDgQWBBRYLyEzEU8PJ+zw5lzTpOvcDaw2lzAf
BgNVHSMEGDAWgBQR30IEie+U+rImDdWYhlnPp+SzoDASBgNVHRMBAf8ECDAGAQH/
AgEAMA4GA1UdDwEB/wQEAwIBhjANBgkqhkiG9w0BAQsFAAOCAQEAqxPHKXnjb7IL
NMIoiXSNyg/59wqMLINKA7vs5xeQL35n93hDAtNRubY6ewo0MvoOUC8LN9esgQci
Ct9SW3x9qffSQPF7cnvLDIUA5qSLd0kzomTB28UEtY/4RrpUQ2XSFopNYh3W0LGP
+NvdK9sSVL2MIGQoM/pB2CSi0NL2DWArgNO8PhOxLrSGf6oceXcV2p7sFpHCYAk0
vH29gf6c1mCRHzJzDY7frCBcdGqNW6NWwwB7/8MNchK55BurYoFgdVZuuADHTn2J
HI3M0klhFxX/cCRwrDmGwAs/pnHaBDSPmJHydCf0wGXO3hUoj3aLd8XNANDYeg/9
7OwKIgebAA==
-----END CERTIFICATE-----
Certificate:
    Data:
        Version: 3 (0x2)
        Serial Number:
            0c:1c:b3:7b:e0:ed:c2:4e:cd:67:02:7c:2e:ca:83:f0
        Signature Algorithm: sha256WithRSAEncryption
        Issuer: C=ES, ST=Bizkaia, O=Orlando, OU=IOT, CN=IOT_CA
        Validity
            Not Before: Mar  1 19:04:12 2021 GMT
            Not After : Mar  1 19:04:12 2022 GMT
        Subject: C=ES, ST=Bizkaia, O=Orlando, OU=IOT, CN=IOT_CA
        Subject Public Key Info:
            Public Key Algorithm: rsaEncryption
                RSA Public-Key: (2048 bit)
                Modulus:
                    00:d1:08:a7:8e:b5:b8:24:cd:04:f3:c0:52:2e:cc:
                    dd:db:68:65:ab:b0:8f:16:75:17:12:01:a6:c9:61:
                    25:d9:c2:9d:33:e2:90:bb:2d:b3:89:a6:99:e6:9a:
                    48:6e:ba:e8:47:fe:e0:5a:7e:1e:53:08:12:ee:db:
                    84:da:57:25:0f:b5:b0:67:65:ef:87:70:ce:c5:a4:
                    e6:66:3e:ad:b1:22:c9:b5:41:2d:f6:e0:d1:d8:41:
                    3e:ce:1d:f2:db:d4:df:93:a6:31:5f:24:ae:fc:50:
                    65:5d:8d:99:64:16:d2:a3:03:90:6e:8f:7d:f1:33:
                    92:66:d3:55:e6:c3:87:13:4f:d4:9e:79:b2:f0:15:
                    9a:89:75:40:ba:92:d0:8d:ed:62:d1:39:ff:84:fc:
                    d6:46:a8:13:0e:e4:e8:49:b8:ea:ca:41:8d:b0:43:
                    54:71:b3:f5:58:d5:57:56:ab:1f:cf:0b:6d:76:c7:
                    2e:4c:92:66:f7:9f:57:63:ac:00:1e:c7:ce:38:26:
                    d9:86:2e:10:64:56:a6:eb:f6:ec:1e:bc:1c:b9:e4:
                    b4:3e:95:76:02:1d:1d:7e:4e:f2:77:1e:1d:ce:15:
                    83:73:5c:cc:30:41:1e:b7:5e:df:50:7c:e0:50:eb:
                    f6:75:fc:8c:c2:90:55:47:20:31:b9:e0:47:28:a5:
                    4c:ed
                Exponent: 65537 (0x10001)
        X509v3 extensions:
            X509v3 Basic Constraints: critical
                CA:TRUE
            X509v3 Key Usage: critical
                Digital Signature, Certificate Sign, CRL Sign
            X509v3 Subject Key Identifier: 
                11:DF:42:04:89:EF:94:FA:B2:26:0D:D5:98:86:59:CF:A7:E4:B3:A0
            X509v3 Authority Key Identifier: 
                keyid:11:DF:42:04:89:EF:94:FA:B2:26:0D:D5:98:86:59:CF:A7:E4:B3:A0

    Signature Algorithm: sha256WithRSAEncryption
         4d:bf:2f:8e:db:de:ec:9e:13:d9:a4:49:4e:ed:46:64:59:7c:
         03:2f:65:5c:f1:e3:0f:80:10:c2:03:00:fe:d2:23:3a:3e:79:
         40:2f:4a:69:e3:f2:2a:de:47:11:54:ea:98:50:8f:4a:8b:56:
         06:53:f6:21:57:31:c2:ac:c0:45:6d:8a:bb:f4:59:2b:f4:03:
         13:22:a6:91:01:d3:4e:c4:43:3f:9d:d5:74:09:43:f6:b2:d2:
         19:2b:b4:a0:99:65:75:cf:da:3e:27:d1:6d:10:5f:24:c6:f2:
         fb:3b:4f:3d:04:b5:8b:0a:f1:71:34:94:30:9d:6b:f3:c8:d5:
         43:56:0f:cf:48:6c:98:e1:d9:13:57:d2:5a:61:d8:b5:86:7d:
         80:2c:d0:67:7d:db:40:f3:9b:fa:6e:60:fa:07:fe:6e:f5:15:
         a4:08:22:5d:d5:6d:d3:fb:75:a1:03:ab:56:fa:bd:38:d8:c2:
         09:24:1b:30:6a:0a:08:a5:4c:d0:98:9d:4f:c7:05:7e:00:77:
         71:2c:33:47:41:53:5a:cd:6e:98:de:8c:ec:98:ae:bf:57:80:
         a5:90:d4:4c:88:92:9f:c2:a3:15:14:73:55:2f:c1:b6:ae:51:
         1d:7b:32:86:2f:0a:9b:25:b0:f7:a6:c3:d5:e0:1b:2e:39:eb:
         ff:6a:19:88
-----BEGIN CERTIFICATE-----
MIIDjTCCAnWgAwIBAgIQDByze+Dtwk7NZwJ8LsqD8DANBgkqhkiG9w0BAQsFADBQ
MQswCQYDVQQGEwJFUzEQMA4GA1UECAwHQml6a2FpYTEQMA4GA1UECgwHT3JsYW5k
bzEMMAoGA1UECwwDSU9UMQ8wDQYDVQQDDAZJT1RfQ0EwHhcNMjEwMzAxMTkwNDEy
WhcNMjIwMzAxMTkwNDEyWjBQMQswCQYDVQQGEwJFUzEQMA4GA1UECAwHQml6a2Fp
YTEQMA4GA1UECgwHT3JsYW5kbzEMMAoGA1UECwwDSU9UMQ8wDQYDVQQDDAZJT1Rf
Q0EwggEiMA0GCSqGSIb3DQEBAQUAA4IBDwAwggEKAoIBAQDRCKeOtbgkzQTzwFIu
zN3baGWrsI8WdRcSAabJYSXZwp0z4pC7LbOJppnmmkhuuuhH/uBafh5TCBLu24Ta
VyUPtbBnZe+HcM7FpOZmPq2xIsm1QS324NHYQT7OHfLb1N+TpjFfJK78UGVdjZlk
FtKjA5Buj33xM5Jm01Xmw4cTT9SeebLwFZqJdUC6ktCN7WLROf+E/NZGqBMO5OhJ
uOrKQY2wQ1Rxs/VY1VdWqx/PC212xy5Mkmb3n1djrAAex844JtmGLhBkVqbr9uwe
vBy55LQ+lXYCHR1+TvJ3Hh3OFYNzXMwwQR63Xt9QfOBQ6/Z1/IzCkFVHIDG54Eco
pUztAgMBAAGjYzBhMA8GA1UdEwEB/wQFMAMBAf8wDgYDVR0PAQH/BAQDAgGGMB0G
A1UdDgQWBBQR30IEie+U+rImDdWYhlnPp+SzoDAfBgNVHSMEGDAWgBQR30IEie+U
+rImDdWYhlnPp+SzoDANBgkqhkiG9w0BAQsFAAOCAQEATb8vjtve7J4T2aRJTu1G
ZFl8Ay9lXPHjD4AQwgMA/tIjOj55QC9KaePyKt5HEVTqmFCPSotWBlP2IVcxwqzA
RW2Ku/RZK/QDEyKmkQHTTsRDP53VdAlD9rLSGSu0oJlldc/aPifRbRBfJMby+ztP
PQS1iwrxcTSUMJ1r88jVQ1YPz0hsmOHZE1fSWmHYtYZ9gCzQZ33bQPOb+m5g+gf+
bvUVpAgiXdVt0/t1oQOrVvq9ONjCCSQbMGoKCKVM0JidT8cFfgB3cSwzR0FTWs1u
mN6M7Jiuv1eApZDUTIiSn8KjFRRzVS/Btq5RHXsyhi8KmyWw96bD1eAbLjnr/2oZ
iA==
-----END CERTIFICATE-----
