Certificate:
    Data:
        Version: 1 (0x0)
        Serial Number:
            0c:1c:b3:7b:e0:ed:c2:4e:cd:67:02:7c:2e:ca:83:ed
        Signature Algorithm: sha256WithRSAEncryption
        Issuer: C=ES, ST=Bizkaia, O=Orlando, OU=IOT, CN=IOT_CA
        Validity
            Not Before: Feb 28 12:24:11 2021 GMT
            Not After : Feb 28 12:24:11 2022 GMT
        Subject: C=ES, ST=Bizkaia, O=Orlando, OU=IOT, CN=IOT_SubCA
        Subject Public Key Info:
            Public Key Algorithm: rsaEncryption
                RSA Public-Key: (2048 bit)
                Modulus:
                    00:a6:ac:9f:e7:f5:93:b9:93:2a:bc:83:4c:20:9a:
                    48:f7:05:62:4c:89:0a:d0:b0:74:e5:28:86:b9:26:
                    13:94:2f:10:c2:6f:14:18:32:2f:0d:99:58:ad:f9:
                    28:11:c6:c1:b9:9f:0f:09:b0:b5:75:de:f6:cb:a7:
                    e6:68:38:5e:f9:4a:bb:59:10:0d:01:62:49:f3:c0:
                    b0:31:6f:18:9c:89:ca:f7:6b:14:1a:2a:53:3b:e2:
                    01:f7:aa:98:ca:d5:5a:e4:5c:98:20:d2:c1:5f:fa:
                    b5:9c:48:73:bb:88:bf:f7:e2:9d:67:73:30:cf:96:
                    5c:4e:d5:31:20:99:89:33:d7:7c:69:12:51:a3:d5:
                    a6:6f:d9:eb:c8:79:41:d5:e7:32:3e:cb:c4:2a:9f:
                    d3:9c:91:e6:9b:99:5d:f6:1a:ca:64:1f:e6:61:22:
                    18:20:e2:d6:dc:8e:18:e3:a7:90:a7:1a:73:af:00:
                    d6:d9:ba:d4:bc:fc:16:89:db:8a:4f:cc:17:5f:56:
                    6b:d5:3a:cd:fb:64:93:4e:b8:ed:82:f7:3c:98:2a:
                    23:25:71:83:dc:b3:0a:79:cf:04:1c:29:b7:6d:55:
                    4c:2a:e6:a7:08:ad:96:f3:00:96:2c:33:fe:d3:6b:
                    2a:1c:b5:af:0e:b1:33:b7:43:c1:84:14:69:10:a9:
                    5c:75
                Exponent: 65537 (0x10001)
    Signature Algorithm: sha256WithRSAEncryption
         2c:c7:95:c9:29:24:b6:2c:b7:03:57:3a:00:05:3b:83:a0:76:
         17:3f:1f:37:c6:67:57:14:0d:c6:d1:a2:0e:b3:d7:47:b6:37:
         08:48:50:0f:4a:21:2e:68:90:1f:d6:ac:76:b1:db:4c:58:53:
         c1:55:e4:06:6b:c8:21:16:fa:58:03:d1:2d:90:74:d1:7e:98:
         d4:d0:44:76:99:4c:07:21:a4:bd:ea:c1:f9:73:58:96:73:1c:
         36:03:74:b9:7b:69:e8:99:b2:f5:45:4f:24:7b:b1:e8:28:00:
         39:46:c5:9e:18:82:04:ec:f2:6a:a4:11:13:e0:14:ac:01:2d:
         7b:58:ba:05:9c:ff:a3:bc:4f:14:f8:ce:1f:29:56:90:8d:a1:
         4d:a7:7a:e7:e8:e6:07:df:28:39:ba:79:98:93:73:70:73:08:
         04:a5:6c:f6:ed:cd:20:eb:b1:6c:a0:76:1a:95:cc:06:de:b9:
         87:5c:cc:d4:e4:b5:d0:ce:e7:4e:df:cd:f0:ee:39:4e:93:7e:
         05:d8:72:67:99:30:c6:fa:87:cb:9f:48:0d:b7:bd:72:34:97:
         be:43:3e:b1:12:ab:a4:cf:92:1f:fd:d4:3f:32:b3:bf:74:4f:
         26:25:4b:d2:10:2e:40:54:08:d6:3f:e8:d6:3e:9d:26:69:7d:
         c7:ea:42:c2
-----BEGIN CERTIFICATE-----
MIIDJjCCAg4CEAwcs3vg7cJOzWcCfC7Kg+0wDQYJKoZIhvcNAQELBQAwUDELMAkG
A1UEBhMCRVMxEDAOBgNVBAgMB0JpemthaWExEDAOBgNVBAoMB09ybGFuZG8xDDAK
BgNVBAsMA0lPVDEPMA0GA1UEAwwGSU9UX0NBMB4XDTIxMDIyODEyMjQxMVoXDTIy
MDIyODEyMjQxMVowUzELMAkGA1UEBhMCRVMxEDAOBgNVBAgMB0JpemthaWExEDAO
BgNVBAoMB09ybGFuZG8xDDAKBgNVBAsMA0lPVDESMBAGA1UEAwwJSU9UX1N1YkNB
MIIBIjANBgkqhkiG9w0BAQEFAAOCAQ8AMIIBCgKCAQEApqyf5/WTuZMqvINMIJpI
9wViTIkK0LB05SiGuSYTlC8Qwm8UGDIvDZlYrfkoEcbBuZ8PCbC1dd72y6fmaDhe
+Uq7WRANAWJJ88CwMW8YnInK92sUGipTO+IB96qYytVa5FyYINLBX/q1nEhzu4i/
9+KdZ3Mwz5ZcTtUxIJmJM9d8aRJRo9Wmb9nryHlB1ecyPsvEKp/TnJHmm5ld9hrK
ZB/mYSIYIOLW3I4Y46eQpxpzrwDW2brUvPwWiduKT8wXX1Zr1TrN+2STTrjtgvc8
mCojJXGD3LMKec8EHCm3bVVMKuanCK2W8wCWLDP+02sqHLWvDrEzt0PBhBRpEKlc
dQIDAQABMA0GCSqGSIb3DQEBCwUAA4IBAQAsx5XJKSS2LLcDVzoABTuDoHYXPx83
xmdXFA3G0aIOs9dHtjcISFAPSiEuaJAf1qx2sdtMWFPBVeQGa8ghFvpYA9EtkHTR
fpjU0ER2mUwHIaS96sH5c1iWcxw2A3S5e2nombL1RU8ke7HoKAA5RsWeGIIE7PJq
pBET4BSsAS17WLoFnP+jvE8U+M4fKVaQjaFNp3rn6OYH3yg5unmYk3NwcwgEpWz2
7c0g67FsoHYalcwG3rmHXMzU5LXQzudO383w7jlOk34F2HJnmTDG+ofLn0gNt71y
NJe+Qz6xEqukz5If/dQ/MrO/dE8mJUvSEC5AVAjWP+jWPp0maX3H6kLC
-----END CERTIFICATE-----
