Certificate:
    Data:
        Version: 3 (0x2)
        Serial Number:
            0d:5a:aa:e7:c6:8a:00:ed:89:12:69:d9:22:09:8d:73
        Signature Algorithm: sha256WithRSAEncryption
        Issuer: C=ES, ST=Bizkaia, O=Orlando, OU=IOT, CN=IOT_SubCA
        Validity
            Not Before: Mar  1 19:18:32 2021 GMT
            Not After : Mar  1 19:18:32 2022 GMT
        Subject: C=ES, ST=Gipuzkoa, O=Orlando, OU=IOT, CN=www.iot-ocsp-server.com/emailAddress=iot-ocsp-server@iot.com
        Subject Public Key Info:
            Public Key Algorithm: rsaEncryption
                RSA Public-Key: (2048 bit)
                Modulus:
                    00:b3:e9:de:8a:43:bd:48:07:2f:b9:20:09:d0:15:
                    6e:4d:22:42:e1:20:53:7b:c0:a3:59:d7:60:d0:c9:
                    d4:42:04:a5:d8:65:c2:54:a7:38:95:b7:4e:1e:cf:
                    91:e0:65:fd:11:02:01:5c:09:e6:cf:86:d7:3a:96:
                    01:3a:a1:d0:d7:a1:83:96:59:40:1f:d3:7e:9d:5b:
                    e9:29:1e:dd:0a:f2:08:28:eb:ab:c9:e7:ce:54:eb:
                    03:34:02:92:43:a0:fa:0d:86:fc:92:35:6f:ae:fe:
                    fa:71:4a:79:59:09:08:1a:54:08:1a:63:a7:7d:cd:
                    3c:b6:80:21:49:85:f7:e4:16:37:0a:1a:16:b9:f9:
                    32:37:db:f8:d0:43:ba:39:0b:32:10:c0:ee:fc:6a:
                    68:a0:7e:7c:05:f4:ff:b7:51:7d:6f:ae:66:a9:7a:
                    21:91:ee:89:a5:05:a8:f0:f6:2b:62:75:13:70:f8:
                    94:50:29:0f:87:8b:a3:bb:69:12:bb:0a:67:3d:15:
                    c2:7f:64:73:b0:03:69:06:57:9e:86:7d:b1:20:53:
                    ee:f2:94:81:8b:a4:66:cf:cb:f4:25:ec:21:bd:28:
                    08:23:1c:ae:7c:76:09:41:c7:28:b5:9a:01:96:84:
                    33:eb:09:f6:8d:33:29:53:fa:a0:0d:b3:fa:81:c5:
                    9c:d7
                Exponent: 65537 (0x10001)
        X509v3 extensions:
            X509v3 Authority Key Identifier: 
                keyid:58:2F:21:33:11:4F:0F:27:EC:F0:E6:5C:D3:A4:EB:DC:0D:AC:36:97

            X509v3 Basic Constraints: critical
                CA:FALSE
            X509v3 Extended Key Usage: 
                OCSP Signing
            X509v3 Key Usage: critical
                Digital Signature
            X509v3 Subject Key Identifier: 
                83:43:63:B9:7E:52:48:B8:1E:DF:66:1C:6A:CB:B6:8A:6D:FC:F7:34
    Signature Algorithm: sha256WithRSAEncryption
         4f:2a:41:bf:1d:90:62:59:3b:32:9c:b6:12:93:c5:3e:fb:d8:
         60:e1:19:10:d7:96:bd:3b:46:98:1b:47:88:db:30:c5:1b:fc:
         63:78:86:33:3b:af:a6:25:14:5d:6b:d2:64:5a:a6:ec:f6:40:
         12:3c:8d:a7:83:5c:d2:7f:71:b6:33:9f:3c:98:be:6d:9e:15:
         59:67:09:fa:fc:b8:47:fd:61:2d:49:f2:84:af:ea:fb:db:48:
         41:88:17:53:34:50:de:eb:0f:73:07:eb:7f:dc:2b:e9:7b:ca:
         4c:b9:e8:54:9d:43:12:67:55:25:63:3b:8e:24:4c:e3:1e:41:
         55:ec:59:ec:51:4f:8d:cb:5f:91:5c:2b:27:68:0e:d2:50:d8:
         15:16:32:2e:b8:b1:e5:19:6d:8b:e2:92:b9:a8:cb:59:4b:e8:
         47:4b:3f:76:24:93:09:35:f7:3b:d6:e2:66:7c:22:3c:54:ea:
         e7:6b:fb:b4:d0:60:9f:dc:35:c5:64:59:50:fd:12:99:1b:c2:
         1f:47:a0:ee:eb:69:23:f8:a6:68:f3:fd:74:04:ad:c0:4f:d6:
         f6:31:68:5e:9d:48:93:e3:6d:74:96:5d:89:19:fa:6b:ea:d4:
         37:1f:2c:e4:e8:ad:c5:6e:b5:37:dd:b6:d8:d5:0b:2a:02:c4:
         3e:7b:b7:a4
-----BEGIN CERTIFICATE-----
MIID3TCCAsWgAwIBAgIQDVqq58aKAO2JEmnZIgmNczANBgkqhkiG9w0BAQsFADBT
MQswCQYDVQQGEwJFUzEQMA4GA1UECAwHQml6a2FpYTEQMA4GA1UECgwHT3JsYW5k
bzEMMAoGA1UECwwDSU9UMRIwEAYDVQQDDAlJT1RfU3ViQ0EwHhcNMjEwMzAxMTkx
ODMyWhcNMjIwMzAxMTkxODMyWjCBijELMAkGA1UEBhMCRVMxETAPBgNVBAgMCEdp
cHV6a29hMRAwDgYDVQQKDAdPcmxhbmRvMQwwCgYDVQQLDANJT1QxIDAeBgNVBAMM
F3d3dy5pb3Qtb2NzcC1zZXJ2ZXIuY29tMSYwJAYJKoZIhvcNAQkBFhdpb3Qtb2Nz
cC1zZXJ2ZXJAaW90LmNvbTCCASIwDQYJKoZIhvcNAQEBBQADggEPADCCAQoCggEB
ALPp3opDvUgHL7kgCdAVbk0iQuEgU3vAo1nXYNDJ1EIEpdhlwlSnOJW3Th7PkeBl
/RECAVwJ5s+G1zqWATqh0Nehg5ZZQB/Tfp1b6Ske3QryCCjrq8nnzlTrAzQCkkOg
+g2G/JI1b67++nFKeVkJCBpUCBpjp33NPLaAIUmF9+QWNwoaFrn5Mjfb+NBDujkL
MhDA7vxqaKB+fAX0/7dRfW+uZql6IZHuiaUFqPD2K2J1E3D4lFApD4eLo7tpErsK
Zz0Vwn9kc7ADaQZXnoZ9sSBT7vKUgYukZs/L9CXsIb0oCCMcrnx2CUHHKLWaAZaE
M+sJ9o0zKVP6oA2z+oHFnNcCAwEAAaN1MHMwHwYDVR0jBBgwFoAUWC8hMxFPDyfs
8OZc06Tr3A2sNpcwDAYDVR0TAQH/BAIwADATBgNVHSUEDDAKBggrBgEFBQcDCTAO
BgNVHQ8BAf8EBAMCB4AwHQYDVR0OBBYEFINDY7l+Uki4Ht9mHGrLtopt/Pc0MA0G
CSqGSIb3DQEBCwUAA4IBAQBPKkG/HZBiWTsynLYSk8U++9hg4RkQ15a9O0aYG0eI
2zDFG/xjeIYzO6+mJRRda9JkWqbs9kASPI2ng1zSf3G2M588mL5tnhVZZwn6/LhH
/WEtSfKEr+r720hBiBdTNFDe6w9zB+t/3Cvpe8pMuehUnUMSZ1UlYzuOJEzjHkFV
7FnsUU+Ny1+RXCsnaA7SUNgVFjIuuLHlGW2L4pK5qMtZS+hHSz92JJMJNfc71uJm
fCI8VOrna/u00GCf3DXFZFlQ/RKZG8IfR6Du62kj+KZo8/10BK3AT9b2MWhenUiT
4210ll2JGfpr6tQ3Hyzk6K3FbrU33bbY1QsqAsQ+e7ek
-----END CERTIFICATE-----
