Certificate:
    Data:
        Version: 3 (0x2)
        Serial Number:
            0d:5a:aa:e7:c6:8a:00:ed:89:12:69:d9:22:09:8d:72
        Signature Algorithm: sha256WithRSAEncryption
        Issuer: C=ES, ST=Bizkaia, O=Orlando, OU=IOT, CN=IOT_SubCA
        Validity
            Not Before: Mar  1 19:14:22 2021 GMT
            Not After : Mar  1 19:14:22 2022 GMT
        Subject: C=ES, ST=Gipuzkoa, O=Orlando, OU=IOT, CN=Gorka Alvarez/emailAddress=gorka@iot.es
        Subject Public Key Info:
            Public Key Algorithm: rsaEncryption
                RSA Public-Key: (2048 bit)
                Modulus:
                    00:a3:1a:31:3c:01:42:20:65:da:a9:5e:2e:9a:80:
                    f4:53:9b:81:7a:cc:42:fd:1a:5e:0c:2a:44:ff:52:
                    df:f7:13:50:3d:79:86:11:b9:ec:19:04:a2:1a:a0:
                    1b:a0:41:80:8a:3e:80:8a:a2:e3:1a:5c:cf:3f:eb:
                    9f:41:44:ef:db:01:36:b4:a9:cf:7f:de:2c:ad:5b:
                    39:76:72:6e:d5:5c:f6:96:33:13:2b:57:f5:d6:de:
                    9b:35:6f:52:45:f2:12:1a:e7:48:8a:bf:a0:42:5a:
                    99:93:c0:af:85:bf:be:58:cd:e6:b2:ac:d5:0a:33:
                    40:c3:84:04:98:b9:ec:0e:e4:8b:5f:6a:24:57:2f:
                    36:40:0f:88:bf:48:cb:ac:fb:73:20:78:b4:75:47:
                    29:d3:d1:13:33:3e:e4:c7:e8:1e:ef:1a:f3:d8:b8:
                    53:85:32:33:16:ec:e3:c3:f6:f0:8f:b4:6b:5c:9d:
                    9e:31:2e:73:22:36:d1:4b:55:97:45:5b:ac:59:81:
                    74:fc:9b:6b:f8:2d:b2:cd:d6:5d:3e:23:09:16:66:
                    c0:5f:42:ec:34:ff:4a:3e:ae:dd:5b:60:7c:34:4c:
                    a6:75:5c:42:02:56:64:68:f3:32:9b:0d:6d:5d:2d:
                    2d:5f:58:e1:d4:8e:41:93:8a:95:08:8d:d0:cd:0d:
                    54:75
                Exponent: 65537 (0x10001)
        X509v3 extensions:
            Authority Information Access: 
                CA Issuers - URI:http://grupo3-CA.grupoTr3s/grupo3-CA.crt
                OCSP - URI:http://ocsp.grupoTr3s:12000

            X509v3 Authority Key Identifier: 
                keyid:58:2F:21:33:11:4F:0F:27:EC:F0:E6:5C:D3:A4:EB:DC:0D:AC:36:97

            X509v3 Basic Constraints: critical
                CA:FALSE
            X509v3 CRL Distribution Points: 

                Full Name:
                  URI:http://grupo3-CA.grupoTr3s/grupo3-CA.crl

            X509v3 Extended Key Usage: 
                TLS Web Client Authentication
            X509v3 Key Usage: critical
                Digital Signature
            X509v3 Subject Key Identifier: 
                F3:CC:6E:C9:AC:29:4F:19:99:8B:47:80:8D:45:A7:48:44:E3:1D:B4
    Signature Algorithm: sha256WithRSAEncryption
         3f:93:fb:33:08:2d:e6:a5:d5:0b:30:b3:65:be:30:79:92:2b:
         b1:e0:3e:8a:48:43:46:50:25:d2:6d:9b:6e:d4:05:77:27:0e:
         3c:93:60:a0:b4:f0:59:be:f6:96:3d:e1:5f:53:18:06:04:d5:
         13:43:1b:c2:00:53:40:d8:2b:47:a3:c0:ee:52:dd:4c:cc:c9:
         15:f3:6b:6e:e9:1b:38:31:b6:81:a8:e0:f0:7f:55:3b:76:fe:
         23:38:80:d8:02:ee:d9:1f:59:6d:a7:40:44:8b:5f:97:dc:93:
         7d:50:61:87:7b:21:fb:2f:3d:6c:0f:4f:0a:06:9b:34:74:57:
         c0:02:33:05:a7:81:0e:b1:57:a0:fa:85:46:92:fa:29:23:4d:
         b4:8e:df:0d:77:85:59:dc:e2:b0:87:70:ff:67:d9:be:79:35:
         d6:7c:7c:e3:55:9d:4d:67:73:76:dc:d0:09:56:71:7d:62:9a:
         07:7c:92:0d:9a:4f:5d:8b:0f:76:2f:d9:35:f2:b2:31:74:c1:
         c8:95:b8:1d:b7:eb:eb:93:20:e2:58:a9:08:61:63:09:f3:5a:
         6d:db:4c:60:2c:4e:8d:16:69:05:ea:c4:2b:9b:26:1f:7b:a9:
         2f:74:80:ea:50:b6:08:06:28:d2:db:dd:b6:3b:40:bc:12:94:
         59:62:79:db
-----BEGIN CERTIFICATE-----
MIIEdTCCA12gAwIBAgIQDVqq58aKAO2JEmnZIgmNcjANBgkqhkiG9w0BAQsFADBT
MQswCQYDVQQGEwJFUzEQMA4GA1UECAwHQml6a2FpYTEQMA4GA1UECgwHT3JsYW5k
bzEMMAoGA1UECwwDSU9UMRIwEAYDVQQDDAlJT1RfU3ViQ0EwHhcNMjEwMzAxMTkx
NDIyWhcNMjIwMzAxMTkxNDIyWjB1MQswCQYDVQQGEwJFUzERMA8GA1UECAwIR2lw
dXprb2ExEDAOBgNVBAoMB09ybGFuZG8xDDAKBgNVBAsMA0lPVDEWMBQGA1UEAwwN
R29ya2EgQWx2YXJlejEbMBkGCSqGSIb3DQEJARYMZ29ya2FAaW90LmVzMIIBIjAN
BgkqhkiG9w0BAQEFAAOCAQ8AMIIBCgKCAQEAoxoxPAFCIGXaqV4umoD0U5uBesxC
/RpeDCpE/1Lf9xNQPXmGEbnsGQSiGqAboEGAij6AiqLjGlzPP+ufQUTv2wE2tKnP
f94srVs5dnJu1Vz2ljMTK1f11t6bNW9SRfISGudIir+gQlqZk8Cvhb++WM3msqzV
CjNAw4QEmLnsDuSLX2okVy82QA+Iv0jLrPtzIHi0dUcp09ETMz7kx+ge7xrz2LhT
hTIzFuzjw/bwj7RrXJ2eMS5zIjbRS1WXRVusWYF0/Jtr+C2yzdZdPiMJFmbAX0Ls
NP9KPq7dW2B8NEymdVxCAlZkaPMymw1tXS0tX1jh1I5Bk4qVCI3QzQ1UdQIDAQAB
o4IBITCCAR0wbQYIKwYBBQUHAQEEYTBfMDQGCCsGAQUFBzAChihodHRwOi8vZ3J1
cG8zLUNBLmdydXBvVHIzcy9ncnVwbzMtQ0EuY3J0MCcGCCsGAQUFBzABhhtodHRw
Oi8vb2NzcC5ncnVwb1RyM3M6MTIwMDAwHwYDVR0jBBgwFoAUWC8hMxFPDyfs8OZc
06Tr3A2sNpcwDAYDVR0TAQH/BAIwADA5BgNVHR8EMjAwMC6gLKAqhihodHRwOi8v
Z3J1cG8zLUNBLmdydXBvVHIzcy9ncnVwbzMtQ0EuY3JsMBMGA1UdJQQMMAoGCCsG
AQUFBwMCMA4GA1UdDwEB/wQEAwIHgDAdBgNVHQ4EFgQU88xuyawpTxmZi0eAjUWn
SETjHbQwDQYJKoZIhvcNAQELBQADggEBAD+T+zMILeal1Qsws2W+MHmSK7HgPopI
Q0ZQJdJtm27UBXcnDjyTYKC08Fm+9pY94V9TGAYE1RNDG8IAU0DYK0ejwO5S3UzM
yRXza27pGzgxtoGo4PB/VTt2/iM4gNgC7tkfWW2nQESLX5fck31QYYd7IfsvPWwP
TwoGmzR0V8ACMwWngQ6xV6D6hUaS+ikjTbSO3w13hVnc4rCHcP9n2b55NdZ8fONV
nU1nc3bc0AlWcX1imgd8kg2aT12LD3Yv2TXysjF0wciVuB236+uTIOJYqQhhYwnz
Wm3bTGAsTo0WaQXqxCubJh97qS90gOpQtggGKNLb3bY7QLwSlFlieds=
-----END CERTIFICATE-----
