Certificate:
    Data:
        Version: 1 (0x0)
        Serial Number:
            0c:1c:b3:7b:e0:ed:c2:4e:cd:67:02:7c:2e:ca:83:ec
        Signature Algorithm: sha256WithRSAEncryption
        Issuer: C=ES, ST=Bizkaia, O=Orlando, OU=IOT, CN=IOT_CA
        Validity
            Not Before: Feb 28 12:10:32 2021 GMT
            Not After : Feb 28 12:10:32 2022 GMT
        Subject: C=ES, ST=Bizkaia, O=Orlando, OU=IOT, CN=IOT_CA
        Subject Public Key Info:
            Public Key Algorithm: rsaEncryption
                RSA Public-Key: (2048 bit)
                Modulus:
                    00:d1:08:a7:8e:b5:b8:24:cd:04:f3:c0:52:2e:cc:
                    dd:db:68:65:ab:b0:8f:16:75:17:12:01:a6:c9:61:
                    25:d9:c2:9d:33:e2:90:bb:2d:b3:89:a6:99:e6:9a:
                    48:6e:ba:e8:47:fe:e0:5a:7e:1e:53:08:12:ee:db:
                    84:da:57:25:0f:b5:b0:67:65:ef:87:70:ce:c5:a4:
                    e6:66:3e:ad:b1:22:c9:b5:41:2d:f6:e0:d1:d8:41:
                    3e:ce:1d:f2:db:d4:df:93:a6:31:5f:24:ae:fc:50:
                    65:5d:8d:99:64:16:d2:a3:03:90:6e:8f:7d:f1:33:
                    92:66:d3:55:e6:c3:87:13:4f:d4:9e:79:b2:f0:15:
                    9a:89:75:40:ba:92:d0:8d:ed:62:d1:39:ff:84:fc:
                    d6:46:a8:13:0e:e4:e8:49:b8:ea:ca:41:8d:b0:43:
                    54:71:b3:f5:58:d5:57:56:ab:1f:cf:0b:6d:76:c7:
                    2e:4c:92:66:f7:9f:57:63:ac:00:1e:c7:ce:38:26:
                    d9:86:2e:10:64:56:a6:eb:f6:ec:1e:bc:1c:b9:e4:
                    b4:3e:95:76:02:1d:1d:7e:4e:f2:77:1e:1d:ce:15:
                    83:73:5c:cc:30:41:1e:b7:5e:df:50:7c:e0:50:eb:
                    f6:75:fc:8c:c2:90:55:47:20:31:b9:e0:47:28:a5:
                    4c:ed
                Exponent: 65537 (0x10001)
    Signature Algorithm: sha256WithRSAEncryption
         a9:a2:75:07:42:e4:38:2b:80:79:20:4c:28:57:f9:f3:5e:8a:
         b7:a0:7d:ed:50:99:02:b1:26:d1:08:3e:2a:57:af:87:95:62:
         b6:e8:0b:9c:0f:cb:84:4a:5d:ad:b9:11:af:ba:b7:20:74:b4:
         7b:32:8c:39:a7:5b:64:09:f9:79:d5:2f:ec:63:7c:14:d0:61:
         b0:61:09:d4:79:b2:7f:b5:e3:ba:d3:29:b9:13:30:fc:1c:b1:
         3b:cc:7f:27:52:03:3f:58:62:ae:e5:e5:3d:c2:b5:14:b7:a3:
         cd:7d:4b:e0:23:44:47:a8:f5:a7:8e:54:34:bc:8a:e9:e9:30:
         78:42:82:c0:57:f3:c3:a1:a3:5c:a4:c2:63:0a:50:44:05:63:
         d3:c3:f7:d8:5f:c7:fe:c6:6b:c1:da:a9:3d:b0:9a:f0:9c:33:
         93:6c:45:5b:83:cc:0c:0d:88:da:e3:2d:d7:48:d6:64:c3:68:
         af:b8:ff:69:8c:2b:32:44:89:8f:bc:42:c1:a8:f6:ca:0b:a7:
         46:1b:07:22:5e:6b:54:7d:90:98:31:7c:e4:b7:4c:a3:da:fb:
         3f:b4:0a:99:d5:b2:d9:23:03:c3:1e:b4:01:0c:8b:c7:ae:62:
         7d:0f:c6:54:10:c6:18:cf:e6:05:f3:d9:b2:7f:5b:c2:bb:f0:
         cb:ac:05:67
-----BEGIN CERTIFICATE-----
MIIDIzCCAgsCEAwcs3vg7cJOzWcCfC7Kg+wwDQYJKoZIhvcNAQELBQAwUDELMAkG
A1UEBhMCRVMxEDAOBgNVBAgMB0JpemthaWExEDAOBgNVBAoMB09ybGFuZG8xDDAK
BgNVBAsMA0lPVDEPMA0GA1UEAwwGSU9UX0NBMB4XDTIxMDIyODEyMTAzMloXDTIy
MDIyODEyMTAzMlowUDELMAkGA1UEBhMCRVMxEDAOBgNVBAgMB0JpemthaWExEDAO
BgNVBAoMB09ybGFuZG8xDDAKBgNVBAsMA0lPVDEPMA0GA1UEAwwGSU9UX0NBMIIB
IjANBgkqhkiG9w0BAQEFAAOCAQ8AMIIBCgKCAQEA0QinjrW4JM0E88BSLszd22hl
q7CPFnUXEgGmyWEl2cKdM+KQuy2ziaaZ5ppIbrroR/7gWn4eUwgS7tuE2lclD7Ww
Z2Xvh3DOxaTmZj6tsSLJtUEt9uDR2EE+zh3y29Tfk6YxXySu/FBlXY2ZZBbSowOQ
bo998TOSZtNV5sOHE0/Unnmy8BWaiXVAupLQje1i0Tn/hPzWRqgTDuToSbjqykGN
sENUcbP1WNVXVqsfzwttdscuTJJm959XY6wAHsfOOCbZhi4QZFam6/bsHrwcueS0
PpV2Ah0dfk7ydx4dzhWDc1zMMEEet17fUHzgUOv2dfyMwpBVRyAxueBHKKVM7QID
AQABMA0GCSqGSIb3DQEBCwUAA4IBAQCponUHQuQ4K4B5IEwoV/nzXoq3oH3tUJkC
sSbRCD4qV6+HlWK26AucD8uESl2tuRGvurcgdLR7Mow5p1tkCfl51S/sY3wU0GGw
YQnUebJ/teO60ym5EzD8HLE7zH8nUgM/WGKu5eU9wrUUt6PNfUvgI0RHqPWnjlQ0
vIrp6TB4QoLAV/PDoaNcpMJjClBEBWPTw/fYX8f+xmvB2qk9sJrwnDOTbEVbg8wM
DYja4y3XSNZkw2ivuP9pjCsyRImPvELBqPbKC6dGGwciXmtUfZCYMXzkt0yj2vs/
tAqZ1bLZIwPDHrQBDIvHrmJ9D8ZUEMYYz+YF89myf1vCu/DLrAVn
-----END CERTIFICATE-----
