Certificate:
    Data:
        Version: 1 (0x0)
        Serial Number:
            0d:5a:aa:e7:c6:8a:00:ed:89:12:69:d9:22:09:8d:6c
        Signature Algorithm: sha256WithRSAEncryption
        Issuer: C=ES, ST=Bizkaia, O=Orlando, OU=IOT, CN=IOT_SubCA
        Validity
            Not Before: Feb 28 13:24:01 2021 GMT
            Not After : Feb 28 13:24:01 2022 GMT
        Subject: C=ES, ST=Gipuzkoa, O=Orlando, OU=IOT, CN=Gorka Alvarez/emailAddress=gorka@iot.es
        Subject Public Key Info:
            Public Key Algorithm: rsaEncryption
                RSA Public-Key: (2048 bit)
                Modulus:
                    00:a3:1a:31:3c:01:42:20:65:da:a9:5e:2e:9a:80:
                    f4:53:9b:81:7a:cc:42:fd:1a:5e:0c:2a:44:ff:52:
                    df:f7:13:50:3d:79:86:11:b9:ec:19:04:a2:1a:a0:
                    1b:a0:41:80:8a:3e:80:8a:a2:e3:1a:5c:cf:3f:eb:
                    9f:41:44:ef:db:01:36:b4:a9:cf:7f:de:2c:ad:5b:
                    39:76:72:6e:d5:5c:f6:96:33:13:2b:57:f5:d6:de:
                    9b:35:6f:52:45:f2:12:1a:e7:48:8a:bf:a0:42:5a:
                    99:93:c0:af:85:bf:be:58:cd:e6:b2:ac:d5:0a:33:
                    40:c3:84:04:98:b9:ec:0e:e4:8b:5f:6a:24:57:2f:
                    36:40:0f:88:bf:48:cb:ac:fb:73:20:78:b4:75:47:
                    29:d3:d1:13:33:3e:e4:c7:e8:1e:ef:1a:f3:d8:b8:
                    53:85:32:33:16:ec:e3:c3:f6:f0:8f:b4:6b:5c:9d:
                    9e:31:2e:73:22:36:d1:4b:55:97:45:5b:ac:59:81:
                    74:fc:9b:6b:f8:2d:b2:cd:d6:5d:3e:23:09:16:66:
                    c0:5f:42:ec:34:ff:4a:3e:ae:dd:5b:60:7c:34:4c:
                    a6:75:5c:42:02:56:64:68:f3:32:9b:0d:6d:5d:2d:
                    2d:5f:58:e1:d4:8e:41:93:8a:95:08:8d:d0:cd:0d:
                    54:75
                Exponent: 65537 (0x10001)
    Signature Algorithm: sha256WithRSAEncryption
         29:0e:b9:6e:89:f6:38:6a:1c:0c:83:fd:22:c9:64:d6:f4:aa:
         bf:ad:01:34:fe:3c:95:ff:cd:8f:87:cf:a3:2c:e2:40:dd:e7:
         b7:7f:97:db:ea:cf:af:3e:87:54:3a:d6:d1:ad:98:5e:2f:fb:
         ed:e2:34:58:b2:7e:47:45:f3:76:13:5f:e3:f9:81:40:0b:0d:
         2b:a9:1f:b3:85:d5:c0:d2:4e:4f:e9:03:31:03:9a:65:69:3f:
         87:07:88:74:8f:58:ba:3b:b3:18:1e:fa:93:80:1b:06:f4:b9:
         bf:9e:01:4a:be:92:dc:ae:a6:58:db:e6:23:ff:b5:64:1c:d5:
         40:0d:1a:0b:58:ea:66:79:58:a8:f6:7c:d8:84:d2:b1:4b:7e:
         4c:b8:b2:d4:a7:8d:45:4d:08:46:13:42:df:9b:36:8c:4b:df:
         e6:5d:ad:6e:d7:0b:03:a8:78:60:c7:33:6d:f5:f8:07:fc:b4:
         21:6d:1e:a7:c6:ee:c2:08:75:e2:50:e4:ab:17:f0:a8:6c:cd:
         7d:7c:86:81:f9:83:f8:f0:00:60:45:c1:c7:47:dd:93:e6:f8:
         0d:bd:2c:db:f1:9e:6b:48:f3:d6:13:4e:b9:62:7f:b9:ab:5a:
         68:43:3a:cd:9e:51:25:6e:41:4d:68:5c:57:0a:e7:42:fc:10:
         e2:00:70:86
-----BEGIN CERTIFICATE-----
MIIDSzCCAjMCEA1aqufGigDtiRJp2SIJjWwwDQYJKoZIhvcNAQELBQAwUzELMAkG
A1UEBhMCRVMxEDAOBgNVBAgMB0JpemthaWExEDAOBgNVBAoMB09ybGFuZG8xDDAK
BgNVBAsMA0lPVDESMBAGA1UEAwwJSU9UX1N1YkNBMB4XDTIxMDIyODEzMjQwMVoX
DTIyMDIyODEzMjQwMVowdTELMAkGA1UEBhMCRVMxETAPBgNVBAgMCEdpcHV6a29h
MRAwDgYDVQQKDAdPcmxhbmRvMQwwCgYDVQQLDANJT1QxFjAUBgNVBAMMDUdvcmth
IEFsdmFyZXoxGzAZBgkqhkiG9w0BCQEWDGdvcmthQGlvdC5lczCCASIwDQYJKoZI
hvcNAQEBBQADggEPADCCAQoCggEBAKMaMTwBQiBl2qleLpqA9FObgXrMQv0aXgwq
RP9S3/cTUD15hhG57BkEohqgG6BBgIo+gIqi4xpczz/rn0FE79sBNrSpz3/eLK1b
OXZybtVc9pYzEytX9dbemzVvUkXyEhrnSIq/oEJamZPAr4W/vljN5rKs1QozQMOE
BJi57A7ki19qJFcvNkAPiL9Iy6z7cyB4tHVHKdPREzM+5MfoHu8a89i4U4UyMxbs
48P28I+0a1ydnjEucyI20UtVl0VbrFmBdPyba/gtss3WXT4jCRZmwF9C7DT/Sj6u
3VtgfDRMpnVcQgJWZGjzMpsNbV0tLV9Y4dSOQZOKlQiN0M0NVHUCAwEAATANBgkq
hkiG9w0BAQsFAAOCAQEAKQ65bon2OGocDIP9Islk1vSqv60BNP48lf/Nj4fPoyzi
QN3nt3+X2+rPrz6HVDrW0a2YXi/77eI0WLJ+R0XzdhNf4/mBQAsNK6kfs4XVwNJO
T+kDMQOaZWk/hweIdI9YujuzGB76k4AbBvS5v54BSr6S3K6mWNvmI/+1ZBzVQA0a
C1jqZnlYqPZ82ITSsUt+TLiy1KeNRU0IRhNC35s2jEvf5l2tbtcLA6h4YMczbfX4
B/y0IW0ep8buwgh14lDkqxfwqGzNfXyGgfmD+PAAYEXBx0fdk+b4Db0s2/Gea0jz
1hNOuWJ/uataaEM6zZ5RJW5BTWhcVwrnQvwQ4gBwhg==
-----END CERTIFICATE-----
