Certificate:
    Data:
        Version: 3 (0x2)
        Serial Number:
            0d:5a:aa:e7:c6:8a:00:ed:89:12:69:d9:22:09:8d:71
        Signature Algorithm: sha256WithRSAEncryption
        Issuer: C=ES, ST=Bizkaia, O=Orlando, OU=IOT, CN=IOT_SubCA
        Validity
            Not Before: Mar  1 18:52:06 2021 GMT
            Not After : Mar  1 18:52:06 2022 GMT
        Subject: C=ES, ST=Gipuzkoa, O=Orlando, OU=IOT, CN=www.iot-ocsp-server.com/emailAddress=iot-ocsp-server@iot.com
        Subject Public Key Info:
            Public Key Algorithm: rsaEncryption
                RSA Public-Key: (2048 bit)
                Modulus:
                    00:b3:e9:de:8a:43:bd:48:07:2f:b9:20:09:d0:15:
                    6e:4d:22:42:e1:20:53:7b:c0:a3:59:d7:60:d0:c9:
                    d4:42:04:a5:d8:65:c2:54:a7:38:95:b7:4e:1e:cf:
                    91:e0:65:fd:11:02:01:5c:09:e6:cf:86:d7:3a:96:
                    01:3a:a1:d0:d7:a1:83:96:59:40:1f:d3:7e:9d:5b:
                    e9:29:1e:dd:0a:f2:08:28:eb:ab:c9:e7:ce:54:eb:
                    03:34:02:92:43:a0:fa:0d:86:fc:92:35:6f:ae:fe:
                    fa:71:4a:79:59:09:08:1a:54:08:1a:63:a7:7d:cd:
                    3c:b6:80:21:49:85:f7:e4:16:37:0a:1a:16:b9:f9:
                    32:37:db:f8:d0:43:ba:39:0b:32:10:c0:ee:fc:6a:
                    68:a0:7e:7c:05:f4:ff:b7:51:7d:6f:ae:66:a9:7a:
                    21:91:ee:89:a5:05:a8:f0:f6:2b:62:75:13:70:f8:
                    94:50:29:0f:87:8b:a3:bb:69:12:bb:0a:67:3d:15:
                    c2:7f:64:73:b0:03:69:06:57:9e:86:7d:b1:20:53:
                    ee:f2:94:81:8b:a4:66:cf:cb:f4:25:ec:21:bd:28:
                    08:23:1c:ae:7c:76:09:41:c7:28:b5:9a:01:96:84:
                    33:eb:09:f6:8d:33:29:53:fa:a0:0d:b3:fa:81:c5:
                    9c:d7
                Exponent: 65537 (0x10001)
        X509v3 extensions:
            X509v3 Authority Key Identifier: 
                keyid:58:2F:21:33:11:4F:0F:27:EC:F0:E6:5C:D3:A4:EB:DC:0D:AC:36:97

            X509v3 Basic Constraints: critical
                CA:FALSE
            X509v3 Extended Key Usage: 
                OCSP Signing
            X509v3 Key Usage: critical
                Digital Signature
            X509v3 Subject Key Identifier: 
                83:43:63:B9:7E:52:48:B8:1E:DF:66:1C:6A:CB:B6:8A:6D:FC:F7:34
    Signature Algorithm: sha256WithRSAEncryption
         9f:ea:0f:e5:b7:e7:24:a0:28:8a:d9:37:8a:e8:20:a4:14:8c:
         33:03:bd:3c:96:f6:9f:c6:5d:c1:16:b2:96:2d:3a:69:c3:cd:
         4d:da:c3:6b:68:ed:a1:15:a4:1d:3e:e2:9b:c6:60:97:91:79:
         2f:e0:02:fc:18:14:19:5d:61:8e:fd:5a:0c:d9:5d:05:a6:1d:
         75:d0:3c:c9:1e:8f:b1:4e:7e:b6:99:7e:e5:77:e7:5f:2e:4b:
         85:11:84:d2:97:9f:ed:93:e8:98:dc:f5:dc:02:69:3e:57:2f:
         a3:68:7e:d7:3d:2f:95:e7:90:24:2c:7e:22:b3:b3:ef:da:c7:
         8f:80:5f:50:e5:c5:cf:2d:ed:15:34:3b:d8:e5:12:ba:10:f5:
         40:cc:85:11:f6:8c:4d:cc:be:a9:18:a0:c1:e2:e3:34:d5:d0:
         3d:c6:bf:45:a0:3e:0d:28:ad:04:d1:61:11:7a:75:56:48:52:
         54:fc:37:cf:30:e3:b1:da:f3:e8:99:e4:82:f6:84:93:24:d8:
         81:3e:09:18:6c:ba:90:35:51:94:c4:92:2b:7e:4b:84:87:fe:
         be:c9:88:0c:8a:90:5e:dc:ba:4b:d3:a5:22:39:22:0f:4c:a4:
         f9:ec:a1:59:20:8f:f8:9b:cb:10:5e:0c:99:b5:20:c7:37:c7:
         be:43:25:f3
-----BEGIN CERTIFICATE-----
MIID3TCCAsWgAwIBAgIQDVqq58aKAO2JEmnZIgmNcTANBgkqhkiG9w0BAQsFADBT
MQswCQYDVQQGEwJFUzEQMA4GA1UECAwHQml6a2FpYTEQMA4GA1UECgwHT3JsYW5k
bzEMMAoGA1UECwwDSU9UMRIwEAYDVQQDDAlJT1RfU3ViQ0EwHhcNMjEwMzAxMTg1
MjA2WhcNMjIwMzAxMTg1MjA2WjCBijELMAkGA1UEBhMCRVMxETAPBgNVBAgMCEdp
cHV6a29hMRAwDgYDVQQKDAdPcmxhbmRvMQwwCgYDVQQLDANJT1QxIDAeBgNVBAMM
F3d3dy5pb3Qtb2NzcC1zZXJ2ZXIuY29tMSYwJAYJKoZIhvcNAQkBFhdpb3Qtb2Nz
cC1zZXJ2ZXJAaW90LmNvbTCCASIwDQYJKoZIhvcNAQEBBQADggEPADCCAQoCggEB
ALPp3opDvUgHL7kgCdAVbk0iQuEgU3vAo1nXYNDJ1EIEpdhlwlSnOJW3Th7PkeBl
/RECAVwJ5s+G1zqWATqh0Nehg5ZZQB/Tfp1b6Ske3QryCCjrq8nnzlTrAzQCkkOg
+g2G/JI1b67++nFKeVkJCBpUCBpjp33NPLaAIUmF9+QWNwoaFrn5Mjfb+NBDujkL
MhDA7vxqaKB+fAX0/7dRfW+uZql6IZHuiaUFqPD2K2J1E3D4lFApD4eLo7tpErsK
Zz0Vwn9kc7ADaQZXnoZ9sSBT7vKUgYukZs/L9CXsIb0oCCMcrnx2CUHHKLWaAZaE
M+sJ9o0zKVP6oA2z+oHFnNcCAwEAAaN1MHMwHwYDVR0jBBgwFoAUWC8hMxFPDyfs
8OZc06Tr3A2sNpcwDAYDVR0TAQH/BAIwADATBgNVHSUEDDAKBggrBgEFBQcDCTAO
BgNVHQ8BAf8EBAMCB4AwHQYDVR0OBBYEFINDY7l+Uki4Ht9mHGrLtopt/Pc0MA0G
CSqGSIb3DQEBCwUAA4IBAQCf6g/lt+ckoCiK2TeK6CCkFIwzA708lvafxl3BFrKW
LTppw81N2sNraO2hFaQdPuKbxmCXkXkv4AL8GBQZXWGO/VoM2V0Fph110DzJHo+x
Tn62mX7ld+dfLkuFEYTSl5/tk+iY3PXcAmk+Vy+jaH7XPS+V55AkLH4is7Pv2seP
gF9Q5cXPLe0VNDvY5RK6EPVAzIUR9oxNzL6pGKDB4uM01dA9xr9FoD4NKK0E0WER
enVWSFJU/DfPMOOx2vPomeSC9oSTJNiBPgkYbLqQNVGUxJIrfkuEh/6+yYgMipBe
3LpL06UiOSIPTKT57KFZII/4m8sQXgyZtSDHN8e+QyXz
-----END CERTIFICATE-----
