Certificate:
    Data:
        Version: 3 (0x2)
        Serial Number:
            0d:5a:aa:e7:c6:8a:00:ed:89:12:69:d9:22:09:8d:70
        Signature Algorithm: sha256WithRSAEncryption
        Issuer: C=ES, ST=Bizkaia, O=Orlando, OU=IOT, CN=IOT_SubCA
        Validity
            Not Before: Mar  1 18:48:58 2021 GMT
            Not After : Mar  1 18:48:58 2022 GMT
        Subject: C=ES, ST=Gipuzkoa, O=Orlando, OU=IOT, CN=Gorka Alvarez/emailAddress=gorka@iot.es
        Subject Public Key Info:
            Public Key Algorithm: rsaEncryption
                RSA Public-Key: (2048 bit)
                Modulus:
                    00:a3:1a:31:3c:01:42:20:65:da:a9:5e:2e:9a:80:
                    f4:53:9b:81:7a:cc:42:fd:1a:5e:0c:2a:44:ff:52:
                    df:f7:13:50:3d:79:86:11:b9:ec:19:04:a2:1a:a0:
                    1b:a0:41:80:8a:3e:80:8a:a2:e3:1a:5c:cf:3f:eb:
                    9f:41:44:ef:db:01:36:b4:a9:cf:7f:de:2c:ad:5b:
                    39:76:72:6e:d5:5c:f6:96:33:13:2b:57:f5:d6:de:
                    9b:35:6f:52:45:f2:12:1a:e7:48:8a:bf:a0:42:5a:
                    99:93:c0:af:85:bf:be:58:cd:e6:b2:ac:d5:0a:33:
                    40:c3:84:04:98:b9:ec:0e:e4:8b:5f:6a:24:57:2f:
                    36:40:0f:88:bf:48:cb:ac:fb:73:20:78:b4:75:47:
                    29:d3:d1:13:33:3e:e4:c7:e8:1e:ef:1a:f3:d8:b8:
                    53:85:32:33:16:ec:e3:c3:f6:f0:8f:b4:6b:5c:9d:
                    9e:31:2e:73:22:36:d1:4b:55:97:45:5b:ac:59:81:
                    74:fc:9b:6b:f8:2d:b2:cd:d6:5d:3e:23:09:16:66:
                    c0:5f:42:ec:34:ff:4a:3e:ae:dd:5b:60:7c:34:4c:
                    a6:75:5c:42:02:56:64:68:f3:32:9b:0d:6d:5d:2d:
                    2d:5f:58:e1:d4:8e:41:93:8a:95:08:8d:d0:cd:0d:
                    54:75
                Exponent: 65537 (0x10001)
        X509v3 extensions:
            Authority Information Access: 
                CA Issuers - URI:http://grupo3-CA.grupoTr3s/grupo3-CA.crt
                OCSP - URI:http://ocsp.grupoTr3s:12000

            X509v3 Authority Key Identifier: 
                keyid:58:2F:21:33:11:4F:0F:27:EC:F0:E6:5C:D3:A4:EB:DC:0D:AC:36:97

            X509v3 Basic Constraints: critical
                CA:FALSE
            X509v3 CRL Distribution Points: 

                Full Name:
                  URI:http://grupo3-CA.grupoTr3s/grupo3-CA.crl

            X509v3 Extended Key Usage: 
                TLS Web Client Authentication
            X509v3 Key Usage: critical
                Digital Signature
            X509v3 Subject Key Identifier: 
                F3:CC:6E:C9:AC:29:4F:19:99:8B:47:80:8D:45:A7:48:44:E3:1D:B4
    Signature Algorithm: sha256WithRSAEncryption
         55:48:6c:d8:2f:93:4d:6f:d6:77:0c:f0:32:de:13:d3:cc:15:
         24:06:09:3a:54:01:44:7e:da:91:70:a4:2b:99:77:ba:59:1a:
         52:e0:d9:bb:c9:94:36:f3:23:ef:b5:d8:36:37:05:b0:ab:81:
         57:5c:ec:c4:ba:fe:b5:e1:f2:bc:9e:53:dd:47:c5:e6:28:51:
         a4:b4:84:72:0c:6c:89:4c:75:41:43:bd:2e:96:59:00:45:7d:
         19:71:aa:b5:78:69:9f:0f:ab:70:c6:4e:e6:53:7e:cd:4b:7e:
         07:47:b9:c7:58:91:f5:b0:83:cc:c4:6e:8f:c2:8f:a4:69:c5:
         6b:b4:4a:14:3e:2a:f1:cf:d5:d8:8a:24:69:85:1d:79:da:e4:
         30:27:43:54:8a:83:31:d6:dd:06:51:56:68:32:b9:10:23:d3:
         9c:dd:98:bd:01:3a:54:4f:27:17:7c:59:db:7e:8f:e8:28:4b:
         77:3d:8b:9e:17:a5:99:6c:ec:e1:04:e2:ed:b7:f2:af:c1:b6:
         a7:d7:17:ef:14:cd:49:ad:e0:e2:bd:f8:46:d6:a5:c3:83:03:
         c2:0f:c0:0b:f1:1c:f2:02:88:6c:01:87:58:c1:10:4a:c3:50:
         9a:03:fb:a0:0c:8e:1a:17:18:d9:da:df:d6:34:f1:9e:cb:61:
         68:46:fe:69
-----BEGIN CERTIFICATE-----
MIIEdTCCA12gAwIBAgIQDVqq58aKAO2JEmnZIgmNcDANBgkqhkiG9w0BAQsFADBT
MQswCQYDVQQGEwJFUzEQMA4GA1UECAwHQml6a2FpYTEQMA4GA1UECgwHT3JsYW5k
bzEMMAoGA1UECwwDSU9UMRIwEAYDVQQDDAlJT1RfU3ViQ0EwHhcNMjEwMzAxMTg0
ODU4WhcNMjIwMzAxMTg0ODU4WjB1MQswCQYDVQQGEwJFUzERMA8GA1UECAwIR2lw
dXprb2ExEDAOBgNVBAoMB09ybGFuZG8xDDAKBgNVBAsMA0lPVDEWMBQGA1UEAwwN
R29ya2EgQWx2YXJlejEbMBkGCSqGSIb3DQEJARYMZ29ya2FAaW90LmVzMIIBIjAN
BgkqhkiG9w0BAQEFAAOCAQ8AMIIBCgKCAQEAoxoxPAFCIGXaqV4umoD0U5uBesxC
/RpeDCpE/1Lf9xNQPXmGEbnsGQSiGqAboEGAij6AiqLjGlzPP+ufQUTv2wE2tKnP
f94srVs5dnJu1Vz2ljMTK1f11t6bNW9SRfISGudIir+gQlqZk8Cvhb++WM3msqzV
CjNAw4QEmLnsDuSLX2okVy82QA+Iv0jLrPtzIHi0dUcp09ETMz7kx+ge7xrz2LhT
hTIzFuzjw/bwj7RrXJ2eMS5zIjbRS1WXRVusWYF0/Jtr+C2yzdZdPiMJFmbAX0Ls
NP9KPq7dW2B8NEymdVxCAlZkaPMymw1tXS0tX1jh1I5Bk4qVCI3QzQ1UdQIDAQAB
o4IBITCCAR0wbQYIKwYBBQUHAQEEYTBfMDQGCCsGAQUFBzAChihodHRwOi8vZ3J1
cG8zLUNBLmdydXBvVHIzcy9ncnVwbzMtQ0EuY3J0MCcGCCsGAQUFBzABhhtodHRw
Oi8vb2NzcC5ncnVwb1RyM3M6MTIwMDAwHwYDVR0jBBgwFoAUWC8hMxFPDyfs8OZc
06Tr3A2sNpcwDAYDVR0TAQH/BAIwADA5BgNVHR8EMjAwMC6gLKAqhihodHRwOi8v
Z3J1cG8zLUNBLmdydXBvVHIzcy9ncnVwbzMtQ0EuY3JsMBMGA1UdJQQMMAoGCCsG
AQUFBwMCMA4GA1UdDwEB/wQEAwIHgDAdBgNVHQ4EFgQU88xuyawpTxmZi0eAjUWn
SETjHbQwDQYJKoZIhvcNAQELBQADggEBAFVIbNgvk01v1ncM8DLeE9PMFSQGCTpU
AUR+2pFwpCuZd7pZGlLg2bvJlDbzI++12DY3BbCrgVdc7MS6/rXh8ryeU91HxeYo
UaS0hHIMbIlMdUFDvS6WWQBFfRlxqrV4aZ8Pq3DGTuZTfs1LfgdHucdYkfWwg8zE
bo/Cj6RpxWu0ShQ+KvHP1diKJGmFHXna5DAnQ1SKgzHW3QZRVmgyuRAj05zdmL0B
OlRPJxd8Wdt+j+goS3c9i54XpZls7OEE4u238q/BtqfXF+8UzUmt4OK9+EbWpcOD
A8IPwAvxHPICiGwBh1jBEErDUJoD+6AMjhoXGNna39Y08Z7LYWhG/mk=
-----END CERTIFICATE-----
