Certificate:
    Data:
        Version: 3 (0x2)
        Serial Number:
            0c:1c:b3:7b:e0:ed:c2:4e:cd:67:02:7c:2e:ca:83:f1
        Signature Algorithm: sha256WithRSAEncryption
        Issuer: C=ES, ST=Bizkaia, O=Orlando, OU=IOT, CN=IOT_CA
        Validity
            Not Before: Mar  1 19:06:03 2021 GMT
            Not After : Mar  1 19:06:03 2022 GMT
        Subject: C=ES, ST=Bizkaia, O=Orlando, OU=IOT, CN=IOT_SubCA
        Subject Public Key Info:
            Public Key Algorithm: rsaEncryption
                RSA Public-Key: (2048 bit)
                Modulus:
                    00:a6:ac:9f:e7:f5:93:b9:93:2a:bc:83:4c:20:9a:
                    48:f7:05:62:4c:89:0a:d0:b0:74:e5:28:86:b9:26:
                    13:94:2f:10:c2:6f:14:18:32:2f:0d:99:58:ad:f9:
                    28:11:c6:c1:b9:9f:0f:09:b0:b5:75:de:f6:cb:a7:
                    e6:68:38:5e:f9:4a:bb:59:10:0d:01:62:49:f3:c0:
                    b0:31:6f:18:9c:89:ca:f7:6b:14:1a:2a:53:3b:e2:
                    01:f7:aa:98:ca:d5:5a:e4:5c:98:20:d2:c1:5f:fa:
                    b5:9c:48:73:bb:88:bf:f7:e2:9d:67:73:30:cf:96:
                    5c:4e:d5:31:20:99:89:33:d7:7c:69:12:51:a3:d5:
                    a6:6f:d9:eb:c8:79:41:d5:e7:32:3e:cb:c4:2a:9f:
                    d3:9c:91:e6:9b:99:5d:f6:1a:ca:64:1f:e6:61:22:
                    18:20:e2:d6:dc:8e:18:e3:a7:90:a7:1a:73:af:00:
                    d6:d9:ba:d4:bc:fc:16:89:db:8a:4f:cc:17:5f:56:
                    6b:d5:3a:cd:fb:64:93:4e:b8:ed:82:f7:3c:98:2a:
                    23:25:71:83:dc:b3:0a:79:cf:04:1c:29:b7:6d:55:
                    4c:2a:e6:a7:08:ad:96:f3:00:96:2c:33:fe:d3:6b:
                    2a:1c:b5:af:0e:b1:33:b7:43:c1:84:14:69:10:a9:
                    5c:75
                Exponent: 65537 (0x10001)
        X509v3 extensions:
            X509v3 Subject Key Identifier: 
                58:2F:21:33:11:4F:0F:27:EC:F0:E6:5C:D3:A4:EB:DC:0D:AC:36:97
            X509v3 Authority Key Identifier: 
                keyid:11:DF:42:04:89:EF:94:FA:B2:26:0D:D5:98:86:59:CF:A7:E4:B3:A0

            X509v3 Basic Constraints: critical
                CA:TRUE, pathlen:0
            X509v3 Key Usage: critical
                Digital Signature, Certificate Sign, CRL Sign
    Signature Algorithm: sha256WithRSAEncryption
         ab:13:c7:29:79:e3:6f:b2:0b:34:c2:28:89:74:8d:ca:0f:f9:
         f7:0a:8c:2c:83:4a:03:bb:ec:e7:17:90:2f:7e:67:f7:78:43:
         02:d3:51:b9:b6:3a:7b:0a:34:32:fa:0e:50:2f:0b:37:d7:ac:
         81:07:22:0a:df:52:5b:7c:7d:a9:f7:d2:40:f1:7b:72:7b:cb:
         0c:85:00:e6:a4:8b:77:49:33:a2:64:c1:db:c5:04:b5:8f:f8:
         46:ba:54:43:65:d2:16:8a:4d:62:1d:d6:d0:b1:8f:f8:db:dd:
         2b:db:12:54:bd:8c:20:64:28:33:fa:41:d8:24:a2:d0:d2:f6:
         0d:60:2b:80:d3:bc:3e:13:b1:2e:b4:86:7f:aa:1c:79:77:15:
         da:9e:ec:16:91:c2:60:09:34:bc:7d:bd:81:fe:9c:d6:60:91:
         1f:32:73:0d:8e:df:ac:20:5c:74:6a:8d:5b:a3:56:c3:00:7b:
         ff:c3:0d:72:12:b9:e4:1b:ab:62:81:60:75:56:6e:b8:00:c7:
         4e:7d:89:1c:8d:cc:d2:49:61:17:15:ff:70:24:70:ac:39:86:
         c0:0b:3f:a6:71:da:04:34:8f:98:91:f2:74:27:f4:c0:65:ce:
         de:15:28:8f:76:8b:77:c5:cd:00:d0:d8:7a:0f:fd:ec:ec:0a:
         22:07:9b:00
-----BEGIN CERTIFICATE-----
MIIDkzCCAnugAwIBAgIQDByze+Dtwk7NZwJ8LsqD8TANBgkqhkiG9w0BAQsFADBQ
MQswCQYDVQQGEwJFUzEQMA4GA1UECAwHQml6a2FpYTEQMA4GA1UECgwHT3JsYW5k
bzEMMAoGA1UECwwDSU9UMQ8wDQYDVQQDDAZJT1RfQ0EwHhcNMjEwMzAxMTkwNjAz
WhcNMjIwMzAxMTkwNjAzWjBTMQswCQYDVQQGEwJFUzEQMA4GA1UECAwHQml6a2Fp
YTEQMA4GA1UECgwHT3JsYW5kbzEMMAoGA1UECwwDSU9UMRIwEAYDVQQDDAlJT1Rf
U3ViQ0EwggEiMA0GCSqGSIb3DQEBAQUAA4IBDwAwggEKAoIBAQCmrJ/n9ZO5kyq8
g0wgmkj3BWJMiQrQsHTlKIa5JhOULxDCbxQYMi8NmVit+SgRxsG5nw8JsLV13vbL
p+ZoOF75SrtZEA0BYknzwLAxbxicicr3axQaKlM74gH3qpjK1VrkXJgg0sFf+rWc
SHO7iL/34p1nczDPllxO1TEgmYkz13xpElGj1aZv2evIeUHV5zI+y8Qqn9Ockeab
mV32GspkH+ZhIhgg4tbcjhjjp5CnGnOvANbZutS8/BaJ24pPzBdfVmvVOs37ZJNO
uO2C9zyYKiMlcYPcswp5zwQcKbdtVUwq5qcIrZbzAJYsM/7Tayocta8OsTO3Q8GE
FGkQqVx1AgMBAAGjZjBkMB0GA1UdDgQWBBRYLyEzEU8PJ+zw5lzTpOvcDaw2lzAf
BgNVHSMEGDAWgBQR30IEie+U+rImDdWYhlnPp+SzoDASBgNVHRMBAf8ECDAGAQH/
AgEAMA4GA1UdDwEB/wQEAwIBhjANBgkqhkiG9w0BAQsFAAOCAQEAqxPHKXnjb7IL
NMIoiXSNyg/59wqMLINKA7vs5xeQL35n93hDAtNRubY6ewo0MvoOUC8LN9esgQci
Ct9SW3x9qffSQPF7cnvLDIUA5qSLd0kzomTB28UEtY/4RrpUQ2XSFopNYh3W0LGP
+NvdK9sSVL2MIGQoM/pB2CSi0NL2DWArgNO8PhOxLrSGf6oceXcV2p7sFpHCYAk0
vH29gf6c1mCRHzJzDY7frCBcdGqNW6NWwwB7/8MNchK55BurYoFgdVZuuADHTn2J
HI3M0klhFxX/cCRwrDmGwAs/pnHaBDSPmJHydCf0wGXO3hUoj3aLd8XNANDYeg/9
7OwKIgebAA==
-----END CERTIFICATE-----
