Certificate:
    Data:
        Version: 1 (0x0)
        Serial Number:
            0d:5a:aa:e7:c6:8a:00:ed:89:12:69:d9:22:09:8d:6e
        Signature Algorithm: sha256WithRSAEncryption
        Issuer: C=ES, ST=Bizkaia, O=Orlando, OU=IOT, CN=IOT_SubCA
        Validity
            Not Before: Feb 28 13:43:35 2021 GMT
            Not After : Feb 28 13:43:35 2022 GMT
        Subject: C=ES, ST=Gipuzkoa, O=Orlando, OU=IOT, CN=www.user2-server.com/emailAddress=user2-server@iot.com
        Subject Public Key Info:
            Public Key Algorithm: rsaEncryption
                RSA Public-Key: (2048 bit)
                Modulus:
                    00:dc:5d:43:39:af:06:f7:91:f8:30:58:8e:a9:dc:
                    45:74:e8:e0:10:ec:43:b9:9f:9e:da:aa:97:62:59:
                    e3:6c:d4:a8:ff:e8:44:bd:c5:5c:67:62:70:2f:6e:
                    db:c7:2b:89:23:99:e6:40:01:dd:7d:ab:2d:ce:ce:
                    05:65:36:7e:4e:70:e9:8c:ad:c0:1e:be:da:60:12:
                    3d:09:c8:6e:71:c1:3b:0e:86:5d:36:90:f3:33:2c:
                    33:8d:c1:2e:68:bf:8f:10:07:62:f0:13:09:60:1d:
                    a3:21:dc:38:ac:01:26:72:82:9f:a6:cf:37:9e:da:
                    3b:8f:27:6e:b5:ed:aa:07:f8:61:a8:24:34:26:38:
                    b8:21:41:66:da:c8:bc:ce:96:f2:b3:0d:90:d2:9a:
                    23:4d:85:bd:5f:f5:53:e2:3e:ac:ce:3e:58:ef:e9:
                    dd:8b:3b:ac:3f:bc:de:46:c2:a7:49:ec:ef:f3:f1:
                    18:7a:2f:70:1f:ed:9f:65:91:87:b6:08:ad:d4:fd:
                    13:59:8c:38:db:6d:14:46:4a:fd:fc:b0:ea:7d:ee:
                    28:19:3e:99:d3:71:b3:5e:74:93:0d:7c:96:ec:3b:
                    ae:be:4f:a2:6e:d8:bb:ac:57:d9:ab:26:b2:05:2a:
                    c9:fe:80:09:34:88:eb:89:4c:4b:ee:ac:ab:d0:04:
                    48:f3
                Exponent: 65537 (0x10001)
    Signature Algorithm: sha256WithRSAEncryption
         9a:c2:cf:e3:e5:38:b9:73:41:50:31:c8:6b:49:af:3f:12:ce:
         65:ed:51:20:d8:17:fd:83:85:2d:4e:62:b8:db:5e:74:9c:a2:
         db:ab:1e:a6:70:19:30:78:5a:dc:51:eb:f7:cd:9a:5b:3f:47:
         b6:24:c7:a5:f7:7c:57:db:d2:c6:68:53:77:78:cf:e7:2d:7c:
         ef:2a:0a:6d:89:07:8b:71:6d:18:5d:ec:20:a9:e3:b7:09:35:
         c1:7c:b7:84:5d:ed:a7:8f:08:1d:49:a1:3b:62:9c:12:f0:c7:
         ff:df:de:f9:fe:0e:e7:4a:ea:15:0e:f6:4f:d9:e6:f6:3d:15:
         ff:2a:ba:5b:57:45:68:fb:0b:c0:43:9e:5c:49:67:c9:d3:bf:
         ce:4d:3f:12:b5:4d:c7:44:df:38:90:91:da:8c:73:cd:6d:2b:
         52:aa:26:75:5b:47:ba:e3:3b:f1:38:f2:84:ab:02:75:c9:b1:
         a8:c9:b4:0c:93:04:5f:3c:e1:8a:cd:29:56:df:fc:00:ae:f7:
         58:4f:04:b3:4e:3c:7b:d2:66:5b:61:62:2c:a0:2c:7f:d8:ac:
         31:ac:ef:2e:1b:2b:45:49:eb:b4:5d:ad:d6:61:27:6f:39:20:
         b0:2d:11:50:b8:0b:f5:ec:b5:56:bc:0f:1b:9e:96:3b:56:7f:
         d8:eb:bc:bf
-----BEGIN CERTIFICATE-----
MIIDWzCCAkMCEA1aqufGigDtiRJp2SIJjW4wDQYJKoZIhvcNAQELBQAwUzELMAkG
A1UEBhMCRVMxEDAOBgNVBAgMB0JpemthaWExEDAOBgNVBAoMB09ybGFuZG8xDDAK
BgNVBAsMA0lPVDESMBAGA1UEAwwJSU9UX1N1YkNBMB4XDTIxMDIyODEzNDMzNVoX
DTIyMDIyODEzNDMzNVowgYQxCzAJBgNVBAYTAkVTMREwDwYDVQQIDAhHaXB1emtv
YTEQMA4GA1UECgwHT3JsYW5kbzEMMAoGA1UECwwDSU9UMR0wGwYDVQQDDBR3d3cu
dXNlcjItc2VydmVyLmNvbTEjMCEGCSqGSIb3DQEJARYUdXNlcjItc2VydmVyQGlv
dC5jb20wggEiMA0GCSqGSIb3DQEBAQUAA4IBDwAwggEKAoIBAQDcXUM5rwb3kfgw
WI6p3EV06OAQ7EO5n57aqpdiWeNs1Kj/6ES9xVxnYnAvbtvHK4kjmeZAAd19qy3O
zgVlNn5OcOmMrcAevtpgEj0JyG5xwTsOhl02kPMzLDONwS5ov48QB2LwEwlgHaMh
3DisASZygp+mzzee2juPJ2617aoH+GGoJDQmOLghQWbayLzOlvKzDZDSmiNNhb1f
9VPiPqzOPljv6d2LO6w/vN5GwqdJ7O/z8Rh6L3Af7Z9lkYe2CK3U/RNZjDjbbRRG
Sv38sOp97igZPpnTcbNedJMNfJbsO66+T6Ju2LusV9mrJrIFKsn+gAk0iOuJTEvu
rKvQBEjzAgMBAAEwDQYJKoZIhvcNAQELBQADggEBAJrCz+PlOLlzQVAxyGtJrz8S
zmXtUSDYF/2DhS1OYrjbXnScoturHqZwGTB4WtxR6/fNmls/R7Ykx6X3fFfb0sZo
U3d4z+ctfO8qCm2JB4txbRhd7CCp47cJNcF8t4Rd7aePCB1JoTtinBLwx//f3vn+
DudK6hUO9k/Z5vY9Ff8qultXRWj7C8BDnlxJZ8nTv85NPxK1TcdE3ziQkdqMc81t
K1KqJnVbR7rjO/E48oSrAnXJsajJtAyTBF884YrNKVbf/ACu91hPBLNOPHvSZlth
YiygLH/YrDGs7y4bK0VJ67RdrdZhJ285ILAtEVC4C/XstVa8DxueljtWf9jrvL8=
-----END CERTIFICATE-----
