Certificate:
    Data:
        Version: 3 (0x2)
        Serial Number:
            0d:5a:aa:e7:c6:8a:00:ed:89:12:69:d9:22:09:8d:6d
        Signature Algorithm: sha256WithRSAEncryption
        Issuer: C=ES, ST=Bizkaia, O=Orlando, OU=IOT, CN=IOT_SubCA
        Validity
            Not Before: Feb 28 13:34:14 2021 GMT
            Not After : Feb 28 13:34:14 2022 GMT
        Subject: C=ES, ST=Gipuzkoa, O=Orlando, OU=IOT, CN=Gorka Alvarez/emailAddress=gorka@iot.es
        Subject Public Key Info:
            Public Key Algorithm: rsaEncryption
                RSA Public-Key: (2048 bit)
                Modulus:
                    00:a3:1a:31:3c:01:42:20:65:da:a9:5e:2e:9a:80:
                    f4:53:9b:81:7a:cc:42:fd:1a:5e:0c:2a:44:ff:52:
                    df:f7:13:50:3d:79:86:11:b9:ec:19:04:a2:1a:a0:
                    1b:a0:41:80:8a:3e:80:8a:a2:e3:1a:5c:cf:3f:eb:
                    9f:41:44:ef:db:01:36:b4:a9:cf:7f:de:2c:ad:5b:
                    39:76:72:6e:d5:5c:f6:96:33:13:2b:57:f5:d6:de:
                    9b:35:6f:52:45:f2:12:1a:e7:48:8a:bf:a0:42:5a:
                    99:93:c0:af:85:bf:be:58:cd:e6:b2:ac:d5:0a:33:
                    40:c3:84:04:98:b9:ec:0e:e4:8b:5f:6a:24:57:2f:
                    36:40:0f:88:bf:48:cb:ac:fb:73:20:78:b4:75:47:
                    29:d3:d1:13:33:3e:e4:c7:e8:1e:ef:1a:f3:d8:b8:
                    53:85:32:33:16:ec:e3:c3:f6:f0:8f:b4:6b:5c:9d:
                    9e:31:2e:73:22:36:d1:4b:55:97:45:5b:ac:59:81:
                    74:fc:9b:6b:f8:2d:b2:cd:d6:5d:3e:23:09:16:66:
                    c0:5f:42:ec:34:ff:4a:3e:ae:dd:5b:60:7c:34:4c:
                    a6:75:5c:42:02:56:64:68:f3:32:9b:0d:6d:5d:2d:
                    2d:5f:58:e1:d4:8e:41:93:8a:95:08:8d:d0:cd:0d:
                    54:75
                Exponent: 65537 (0x10001)
        X509v3 extensions:
            Authority Information Access: 
                CA Issuers - URI:http://grupo3-CA.grupoTr3s/grupo3-CA.crt
                OCSP - URI:http://ocsp.grupoTr3s:12000

            X509v3 Basic Constraints: critical
                CA:FALSE
            X509v3 CRL Distribution Points: 

                Full Name:
                  URI:http://grupo3-CA.grupoTr3s/grupo3-CA.crl

            X509v3 Extended Key Usage: 
                TLS Web Client Authentication
            X509v3 Key Usage: critical
                Digital Signature
            X509v3 Subject Key Identifier: 
                F3:CC:6E:C9:AC:29:4F:19:99:8B:47:80:8D:45:A7:48:44:E3:1D:B4
    Signature Algorithm: sha256WithRSAEncryption
         01:a8:6f:a6:10:fa:c6:23:c7:d1:d2:a3:70:ea:b6:61:46:e2:
         c7:b5:c6:38:32:79:3f:9f:5f:da:38:6f:f3:11:f3:9a:be:7b:
         2b:b7:49:0a:ac:62:c2:e4:ee:dd:a7:89:9e:b0:3c:63:b6:5f:
         0e:06:5d:ff:e1:8b:0c:da:7e:b0:f4:67:26:29:10:3a:b8:be:
         c6:83:d7:58:44:14:b9:ee:ae:e6:73:db:56:a1:9c:57:a8:1b:
         49:54:ea:47:5a:83:53:94:2f:2e:84:5c:bd:9b:25:6e:11:ed:
         05:c5:08:6e:99:09:73:51:e5:d3:36:ca:7c:75:ba:d6:ad:19:
         cb:60:09:8c:27:ca:c4:78:ed:ee:05:f4:b8:47:f0:fa:70:ea:
         bb:b4:3c:18:6d:a6:01:e4:b0:20:dd:3e:29:c9:ea:5e:d6:f2:
         72:61:76:12:fc:49:40:50:67:90:ed:1a:87:e6:38:da:06:12:
         2b:67:77:ad:d8:17:cb:e8:be:d4:d4:a9:f5:7d:2c:a1:26:cb:
         7e:a6:d5:a6:3b:95:43:2b:81:7c:85:a9:06:07:9c:9d:ac:c6:
         e6:d1:2f:35:ec:ce:d7:26:c2:01:13:73:66:17:0a:36:e9:4c:
         60:6a:29:a0:de:fb:42:d0:bf:fa:1d:55:e2:bd:5e:4a:02:ab:
         a0:46:f9:6b
-----BEGIN CERTIFICATE-----
MIIEUjCCAzqgAwIBAgIQDVqq58aKAO2JEmnZIgmNbTANBgkqhkiG9w0BAQsFADBT
MQswCQYDVQQGEwJFUzEQMA4GA1UECAwHQml6a2FpYTEQMA4GA1UECgwHT3JsYW5k
bzEMMAoGA1UECwwDSU9UMRIwEAYDVQQDDAlJT1RfU3ViQ0EwHhcNMjEwMjI4MTMz
NDE0WhcNMjIwMjI4MTMzNDE0WjB1MQswCQYDVQQGEwJFUzERMA8GA1UECAwIR2lw
dXprb2ExEDAOBgNVBAoMB09ybGFuZG8xDDAKBgNVBAsMA0lPVDEWMBQGA1UEAwwN
R29ya2EgQWx2YXJlejEbMBkGCSqGSIb3DQEJARYMZ29ya2FAaW90LmVzMIIBIjAN
BgkqhkiG9w0BAQEFAAOCAQ8AMIIBCgKCAQEAoxoxPAFCIGXaqV4umoD0U5uBesxC
/RpeDCpE/1Lf9xNQPXmGEbnsGQSiGqAboEGAij6AiqLjGlzPP+ufQUTv2wE2tKnP
f94srVs5dnJu1Vz2ljMTK1f11t6bNW9SRfISGudIir+gQlqZk8Cvhb++WM3msqzV
CjNAw4QEmLnsDuSLX2okVy82QA+Iv0jLrPtzIHi0dUcp09ETMz7kx+ge7xrz2LhT
hTIzFuzjw/bwj7RrXJ2eMS5zIjbRS1WXRVusWYF0/Jtr+C2yzdZdPiMJFmbAX0Ls
NP9KPq7dW2B8NEymdVxCAlZkaPMymw1tXS0tX1jh1I5Bk4qVCI3QzQ1UdQIDAQAB
o4H/MIH8MG0GCCsGAQUFBwEBBGEwXzA0BggrBgEFBQcwAoYoaHR0cDovL2dydXBv
My1DQS5ncnVwb1RyM3MvZ3J1cG8zLUNBLmNydDAnBggrBgEFBQcwAYYbaHR0cDov
L29jc3AuZ3J1cG9UcjNzOjEyMDAwMAwGA1UdEwEB/wQCMAAwOQYDVR0fBDIwMDAu
oCygKoYoaHR0cDovL2dydXBvMy1DQS5ncnVwb1RyM3MvZ3J1cG8zLUNBLmNybDAT
BgNVHSUEDDAKBggrBgEFBQcDAjAOBgNVHQ8BAf8EBAMCB4AwHQYDVR0OBBYEFPPM
bsmsKU8ZmYtHgI1Fp0hE4x20MA0GCSqGSIb3DQEBCwUAA4IBAQABqG+mEPrGI8fR
0qNw6rZhRuLHtcY4Mnk/n1/aOG/zEfOavnsrt0kKrGLC5O7dp4mesDxjtl8OBl3/
4YsM2n6w9GcmKRA6uL7Gg9dYRBS57q7mc9tWoZxXqBtJVOpHWoNTlC8uhFy9myVu
Ee0FxQhumQlzUeXTNsp8dbrWrRnLYAmMJ8rEeO3uBfS4R/D6cOq7tDwYbaYB5LAg
3T4pyepe1vJyYXYS/ElAUGeQ7RqH5jjaBhIrZ3et2BfL6L7U1Kn1fSyhJst+ptWm
O5VDK4F8hakGB5ydrMbm0S817M7XJsIBE3NmFwo26Uxgaimg3vtC0L/6HVXivV5K
AqugRvlr
-----END CERTIFICATE-----
